(imapperAlignFmIndex
fmIndex
p0
(dp1
S'slen'
p2
I5387
sS'checkpts'
p3
ccopy_reg
_reconstructor
p4
(cmapperAlignFmIndex
fmCheckpoints
p5
c__builtin__
object
p6
Ntp7
Rp8
(dp9
S'spacing'
p10
I5
sg3
(dp11
S'A'
p12
(lp13
I1
aI2
aI2
aI2
aI3
aI6
aI10
aI12
aI13
aI16
aI19
aI22
aI23
aI26
aI27
aI29
aI32
aI32
aI32
aI32
aI34
aI35
aI36
aI36
aI41
aI44
aI46
aI47
aI47
aI48
aI49
aI52
aI53
aI53
aI55
aI56
aI57
aI60
aI61
aI63
aI63
aI66
aI67
aI71
aI75
aI77
aI78
aI81
aI83
aI84
aI85
aI87
aI89
aI90
aI92
aI93
aI97
aI98
aI99
aI100
aI102
aI104
aI105
aI105
aI106
aI108
aI110
aI113
aI117
aI119
aI121
aI123
aI123
aI124
aI124
aI125
aI128
aI130
aI132
aI133
aI136
aI139
aI140
aI143
aI145
aI148
aI150
aI151
aI155
aI155
aI156
aI157
aI158
aI158
aI159
aI161
aI162
aI164
aI166
aI167
aI170
aI170
aI170
aI171
aI173
aI175
aI177
aI178
aI179
aI180
aI181
aI184
aI186
aI186
aI187
aI188
aI189
aI190
aI191
aI191
aI191
aI192
aI193
aI193
aI195
aI195
aI196
aI196
aI197
aI199
aI200
aI200
aI202
aI205
aI207
aI208
aI209
aI210
aI213
aI214
aI217
aI221
aI221
aI223
aI223
aI224
aI226
aI230
aI231
aI234
aI238
aI238
aI238
aI242
aI247
aI252
aI253
aI254
aI256
aI259
aI262
aI266
aI267
aI269
aI271
aI272
aI273
aI274
aI275
aI279
aI281
aI281
aI281
aI281
aI282
aI284
aI285
aI286
aI289
aI291
aI293
aI294
aI294
aI295
aI296
aI298
aI298
aI298
aI301
aI303
aI306
aI307
aI308
aI308
aI310
aI311
aI315
aI318
aI322
aI324
aI326
aI327
aI327
aI331
aI332
aI334
aI334
aI337
aI339
aI343
aI343
aI343
aI343
aI346
aI348
aI349
aI350
aI350
aI352
aI354
aI356
aI358
aI359
aI361
aI361
aI362
aI364
aI364
aI365
aI368
aI370
aI371
aI371
aI371
aI372
aI373
aI375
aI376
aI377
aI377
aI378
aI378
aI379
aI379
aI379
aI379
aI380
aI380
aI381
aI381
aI384
aI387
aI387
aI389
aI390
aI391
aI393
aI394
aI395
aI396
aI397
aI398
aI398
aI400
aI401
aI401
aI402
aI403
aI404
aI404
aI404
aI404
aI404
aI404
aI407
aI408
aI410
aI412
aI413
aI415
aI417
aI417
aI419
aI420
aI422
aI423
aI424
aI426
aI426
aI427
aI428
aI428
aI429
aI430
aI431
aI431
aI432
aI432
aI432
aI432
aI434
aI435
aI435
aI435
aI435
aI436
aI438
aI439
aI439
aI440
aI444
aI445
aI446
aI451
aI453
aI455
aI456
aI458
aI460
aI460
aI462
aI463
aI464
aI464
aI465
aI465
aI466
aI468
aI472
aI475
aI476
aI476
aI477
aI480
aI481
aI482
aI483
aI485
aI486
aI486
aI488
aI490
aI490
aI491
aI492
aI493
aI494
aI494
aI495
aI495
aI497
aI498
aI500
aI500
aI502
aI504
aI507
aI507
aI509
aI510
aI511
aI512
aI513
aI513
aI514
aI515
aI517
aI517
aI521
aI522
aI523
aI524
aI525
aI527
aI530
aI532
aI534
aI535
aI536
aI537
aI537
aI538
aI540
aI540
aI540
aI542
aI543
aI545
aI546
aI547
aI549
aI549
aI549
aI549
aI549
aI549
aI550
aI551
aI551
aI552
aI554
aI555
aI557
aI559
aI562
aI563
aI564
aI566
aI567
aI569
aI571
aI572
aI573
aI574
aI575
aI575
aI575
aI576
aI577
aI579
aI579
aI581
aI582
aI583
aI584
aI587
aI588
aI589
aI589
aI590
aI591
aI593
aI594
aI595
aI596
aI598
aI598
aI599
aI601
aI601
aI604
aI606
aI608
aI609
aI609
aI610
aI611
aI611
aI611
aI614
aI616
aI617
aI617
aI619
aI620
aI620
aI620
aI620
aI620
aI621
aI625
aI625
aI627
aI627
aI627
aI627
aI628
aI629
aI631
aI631
aI634
aI634
aI636
aI636
aI638
aI640
aI641
aI642
aI644
aI645
aI645
aI646
aI646
aI648
aI649
aI650
aI651
aI653
aI654
aI656
aI657
aI658
aI659
aI662
aI663
aI665
aI668
aI669
aI672
aI672
aI675
aI678
aI681
aI682
aI682
aI683
aI684
aI685
aI686
aI687
aI688
aI688
aI688
aI688
aI690
aI690
aI691
aI692
aI692
aI692
aI693
aI694
aI695
aI696
aI700
aI702
aI703
aI704
aI704
aI705
aI706
aI706
aI706
aI706
aI706
aI706
aI706
aI706
aI706
aI708
aI709
aI709
aI710
aI711
aI713
aI713
aI717
aI717
aI717
aI717
aI719
aI721
aI724
aI728
aI729
aI729
aI730
aI731
aI731
aI731
aI731
aI731
aI733
aI734
aI735
aI735
aI736
aI737
aI738
aI738
aI738
aI738
aI739
aI739
aI740
aI741
aI743
aI743
aI744
aI744
aI744
aI744
aI745
aI745
aI745
aI746
aI747
aI747
aI747
aI749
aI750
aI753
aI754
aI757
aI757
aI759
aI759
aI760
aI762
aI762
aI762
aI764
aI765
aI765
aI765
aI767
aI767
aI767
aI768
aI768
aI769
aI769
aI770
aI772
aI773
aI776
aI778
aI779
aI779
aI779
aI780
aI781
aI781
aI782
aI782
aI782
aI785
aI786
aI787
aI788
aI791
aI793
aI794
aI797
aI800
aI801
aI803
aI804
aI805
aI805
aI806
aI808
aI809
aI809
aI810
aI811
aI813
aI815
aI818
aI821
aI822
aI825
aI827
aI828
aI831
aI833
aI836
aI837
aI839
aI841
aI842
aI842
aI842
aI842
aI844
aI846
aI846
aI848
aI848
aI849
aI852
aI852
aI853
aI853
aI855
aI856
aI856
aI857
aI858
aI858
aI858
aI858
aI859
aI860
aI861
aI861
aI862
aI863
aI863
aI865
aI867
aI867
aI869
aI870
aI871
aI871
aI871
aI872
aI873
aI874
aI874
aI875
aI875
aI876
aI876
aI876
aI877
aI880
aI881
aI881
aI883
aI883
aI884
aI887
aI888
aI889
aI891
aI892
aI892
aI892
aI893
aI894
aI896
aI896
aI896
aI896
aI896
aI896
aI897
aI897
aI898
aI900
aI900
aI901
aI901
aI901
aI902
aI903
aI905
aI906
aI908
aI909
aI911
aI912
aI913
aI915
aI915
aI915
aI916
aI918
aI919
aI921
aI923
aI924
aI926
aI927
aI927
aI928
aI928
aI929
aI931
aI931
aI931
aI933
aI933
aI935
aI937
aI937
aI938
aI939
aI939
aI940
aI941
aI941
aI942
aI943
aI944
aI945
aI945
aI947
aI948
aI948
aI948
aI948
aI948
aI949
aI949
aI951
aI951
aI952
aI954
aI954
aI954
aI955
aI955
aI955
aI956
aI957
aI960
aI961
aI963
aI966
aI966
aI968
aI969
aI970
aI971
aI972
aI974
aI974
aI974
aI975
aI976
aI977
aI979
aI980
aI982
aI982
aI984
aI985
aI986
aI986
aI988
aI988
aI988
aI990
aI991
aI992
aI992
aI993
aI993
aI993
aI994
aI996
aI997
aI997
aI999
aI1000
aI1001
aI1003
aI1003
aI1003
aI1005
aI1005
aI1005
aI1005
aI1007
aI1007
aI1007
aI1007
aI1008
aI1010
aI1010
aI1010
aI1011
aI1012
aI1014
aI1015
aI1016
aI1016
aI1018
aI1019
aI1019
aI1019
aI1020
aI1022
aI1024
aI1025
aI1026
aI1028
aI1029
aI1031
aI1031
aI1033
aI1034
aI1035
aI1037
aI1037
aI1038
aI1040
aI1043
aI1045
aI1047
aI1047
aI1049
aI1051
aI1053
aI1053
aI1054
aI1054
aI1055
aI1055
aI1057
aI1060
aI1062
aI1063
aI1065
aI1068
aI1069
aI1071
aI1072
aI1074
aI1075
aI1077
aI1078
aI1082
aI1084
aI1084
aI1087
aI1087
aI1088
aI1088
aI1089
aI1090
aI1091
aI1091
aI1093
aI1095
aI1096
aI1096
aI1100
aI1102
aI1105
aI1107
aI1107
aI1110
aI1110
aI1111
aI1112
aI1113
aI1113
aI1113
aI1115
aI1116
aI1117
aI1119
aI1121
aI1122
aI1124
aI1125
aI1127
aI1127
aI1129
aI1131
aI1134
aI1135
aI1136
aI1139
aI1140
aI1141
aI1143
aI1147
aI1148
aI1149
aI1151
aI1151
aI1152
aI1154
aI1155
aI1156
aI1158
aI1161
aI1162
aI1164
aI1165
aI1167
aI1168
aI1170
aI1172
aI1172
aI1173
aI1174
aI1176
aI1177
aI1179
aI1180
aI1180
aI1181
aI1182
aI1182
aI1183
aI1186
aI1187
aI1188
aI1190
aI1191
aI1191
aI1194
aI1196
aI1199
aI1200
aI1204
aI1206
aI1206
aI1207
aI1207
aI1207
aI1207
aI1207
aI1208
aI1209
aI1210
aI1210
aI1211
aI1211
aI1211
aI1211
aI1212
aI1212
aI1212
aI1212
aI1215
aI1215
aI1215
aI1216
aI1218
aI1219
aI1221
aI1222
aI1224
aI1225
aI1225
aI1226
aI1228
aI1228
aI1229
aI1230
aI1231
aI1234
aI1236
aI1239
aI1239
aI1240
aI1241
aI1243
aI1244
aI1245
aI1245
aI1247
aI1247
aI1248
aI1248
aI1249
aI1251
aI1251
aI1252
aI1252
aI1253
aI1254
aI1255
aI1255
aI1256
aI1257
aI1258
aI1261
aI1262
aI1263
aI1264
aI1266
aI1267
aI1267
aI1269
aI1270
aI1271
aI1271
aI1274
aI1275
aI1279
aI1280
aI1280
aI1280
aI1282
aI1284
aI1284
aI1286
aI1287
aI1289
aI1291
asS'C'
p14
(lp15
I0
aI2
aI7
aI10
aI10
aI10
aI10
aI11
aI13
aI13
aI13
aI13
aI17
aI19
aI20
aI20
aI20
aI20
aI21
aI21
aI22
aI23
aI23
aI27
aI27
aI28
aI28
aI29
aI29
aI30
aI33
aI34
aI36
aI36
aI39
aI39
aI40
aI41
aI44
aI46
aI50
aI50
aI53
aI53
aI53
aI54
aI56
aI57
aI58
aI60
aI63
aI65
aI66
aI66
aI68
aI68
aI69
aI71
aI72
aI73
aI74
aI75
aI75
aI76
aI77
aI79
aI81
aI83
aI84
aI84
aI85
aI87
aI88
aI88
aI89
aI89
aI89
aI90
aI91
aI92
aI93
aI93
aI95
aI95
aI96
aI96
aI96
aI97
aI97
aI98
aI98
aI99
aI99
aI100
aI101
aI101
aI101
aI102
aI102
aI103
aI104
aI105
aI105
aI106
aI106
aI108
aI109
aI109
aI110
aI111
aI111
aI111
aI112
aI115
aI116
aI117
aI119
aI121
aI121
aI123
aI124
aI124
aI126
aI126
aI126
aI126
aI127
aI127
aI129
aI130
aI131
aI132
aI133
aI134
aI135
aI137
aI140
aI142
aI144
aI145
aI145
aI145
aI147
aI147
aI149
aI149
aI151
aI152
aI153
aI154
aI155
aI155
aI158
aI159
aI159
aI159
aI160
aI161
aI164
aI164
aI164
aI165
aI165
aI165
aI167
aI168
aI170
aI171
aI172
aI173
aI174
aI177
aI179
aI181
aI182
aI183
aI184
aI186
aI188
aI189
aI191
aI191
aI193
aI193
aI193
aI194
aI195
aI196
aI196
aI197
aI197
aI197
aI197
aI198
aI198
aI200
aI201
aI202
aI202
aI203
aI204
aI206
aI208
aI208
aI210
aI211
aI212
aI213
aI215
aI215
aI216
aI216
aI219
aI219
aI220
aI221
aI222
aI224
aI225
aI225
aI225
aI226
aI226
aI227
aI228
aI230
aI230
aI230
aI231
aI231
aI232
aI232
aI233
aI233
aI233
aI233
aI233
aI233
aI234
aI236
aI238
aI241
aI243
aI244
aI244
aI244
aI246
aI246
aI247
aI247
aI247
aI248
aI251
aI251
aI252
aI254
aI255
aI255
aI257
aI258
aI258
aI258
aI259
aI260
aI263
aI263
aI264
aI264
aI266
aI268
aI270
aI272
aI272
aI273
aI273
aI275
aI277
aI278
aI279
aI281
aI281
aI282
aI283
aI286
aI287
aI287
aI288
aI289
aI290
aI291
aI291
aI292
aI292
aI293
aI293
aI294
aI297
aI299
aI302
aI303
aI304
aI306
aI309
aI311
aI311
aI312
aI313
aI314
aI316
aI316
aI317
aI317
aI319
aI319
aI322
aI322
aI322
aI322
aI322
aI323
aI324
aI325
aI327
aI328
aI329
aI330
aI331
aI332
aI332
aI333
aI334
aI336
aI336
aI336
aI336
aI336
aI336
aI336
aI336
aI336
aI338
aI338
aI338
aI338
aI341
aI343
aI344
aI347
aI348
aI348
aI350
aI351
aI352
aI353
aI354
aI354
aI354
aI357
aI359
aI359
aI361
aI364
aI366
aI369
aI370
aI373
aI374
aI376
aI376
aI377
aI379
aI380
aI382
aI382
aI383
aI385
aI386
aI387
aI389
aI391
aI391
aI393
aI395
aI397
aI399
aI399
aI400
aI400
aI401
aI401
aI403
aI406
aI407
aI407
aI409
aI411
aI412
aI412
aI414
aI414
aI415
aI415
aI415
aI417
aI418
aI419
aI421
aI422
aI423
aI424
aI425
aI425
aI426
aI428
aI429
aI429
aI431
aI431
aI431
aI432
aI434
aI435
aI436
aI436
aI436
aI436
aI436
aI437
aI439
aI441
aI442
aI443
aI443
aI444
aI444
aI446
aI447
aI449
aI449
aI449
aI450
aI450
aI453
aI454
aI455
aI456
aI457
aI457
aI457
aI457
aI459
aI459
aI460
aI460
aI460
aI460
aI460
aI461
aI461
aI461
aI461
aI462
aI463
aI465
aI467
aI469
aI469
aI470
aI470
aI471
aI471
aI471
aI472
aI473
aI474
aI475
aI476
aI477
aI477
aI479
aI481
aI482
aI482
aI482
aI483
aI485
aI486
aI486
aI486
aI486
aI488
aI488
aI489
aI489
aI489
aI489
aI489
aI491
aI492
aI493
aI494
aI494
aI494
aI495
aI496
aI496
aI497
aI497
aI499
aI501
aI502
aI503
aI503
aI505
aI505
aI507
aI509
aI511
aI512
aI514
aI514
aI516
aI516
aI519
aI519
aI519
aI521
aI521
aI521
aI523
aI523
aI525
aI526
aI526
aI526
aI527
aI527
aI528
aI529
aI530
aI531
aI531
aI531
aI532
aI532
aI533
aI533
aI533
aI533
aI535
aI535
aI536
aI537
aI537
aI537
aI538
aI539
aI541
aI542
aI545
aI546
aI546
aI549
aI552
aI553
aI556
aI557
aI557
aI560
aI563
aI566
aI569
aI571
aI573
aI574
aI575
aI576
aI578
aI581
aI582
aI583
aI585
aI585
aI586
aI589
aI589
aI589
aI590
aI591
aI592
aI594
aI594
aI595
aI595
aI598
aI599
aI600
aI601
aI603
aI605
aI605
aI605
aI606
aI608
aI610
aI610
aI614
aI616
aI617
aI618
aI618
aI619
aI620
aI620
aI620
aI620
aI621
aI621
aI622
aI624
aI624
aI624
aI625
aI627
aI629
aI631
aI632
aI632
aI633
aI634
aI634
aI634
aI634
aI635
aI635
aI636
aI636
aI638
aI638
aI639
aI639
aI641
aI642
aI644
aI644
aI644
aI644
aI644
aI644
aI644
aI645
aI645
aI645
aI647
aI648
aI648
aI649
aI650
aI650
aI652
aI652
aI654
aI654
aI654
aI654
aI654
aI655
aI656
aI657
aI659
aI660
aI661
aI661
aI661
aI661
aI661
aI661
aI662
aI663
aI664
aI666
aI667
aI669
aI671
aI672
aI673
aI673
aI674
aI678
aI680
aI681
aI682
aI685
aI687
aI689
aI690
aI691
aI692
aI693
aI697
aI698
aI699
aI702
aI704
aI704
aI706
aI708
aI708
aI710
aI712
aI712
aI713
aI714
aI714
aI715
aI716
aI717
aI718
aI720
aI721
aI722
aI722
aI723
aI725
aI729
aI730
aI732
aI733
aI736
aI739
aI739
aI740
aI741
aI744
aI745
aI746
aI748
aI748
aI749
aI750
aI752
aI754
aI754
aI756
aI758
aI759
aI762
aI765
aI767
aI768
aI769
aI771
aI772
aI774
aI774
aI775
aI777
aI780
aI781
aI782
aI784
aI788
aI790
aI791
aI793
aI794
aI794
aI794
aI794
aI794
aI795
aI797
aI799
aI804
aI805
aI805
aI805
aI805
aI807
aI807
aI810
aI811
aI811
aI813
aI813
aI814
aI816
aI818
aI818
aI818
aI819
aI819
aI819
aI820
aI821
aI822
aI822
aI824
aI826
aI828
aI829
aI829
aI831
aI832
aI833
aI834
aI835
aI835
aI836
aI836
aI838
aI839
aI841
aI841
aI841
aI841
aI841
aI843
aI844
aI845
aI845
aI846
aI847
aI850
aI851
aI852
aI855
aI855
aI857
aI859
aI860
aI861
aI864
aI864
aI865
aI866
aI868
aI869
aI871
aI871
aI872
aI872
aI872
aI873
aI874
aI876
aI877
aI877
aI880
aI881
aI882
aI883
aI884
aI886
aI886
aI886
aI886
aI887
aI888
aI888
aI888
aI890
aI892
aI893
aI894
aI896
aI898
aI898
aI900
aI900
aI902
aI905
aI906
aI907
aI909
aI912
aI913
aI915
aI915
aI916
aI918
aI919
aI920
aI922
aI924
aI925
aI925
aI928
aI929
aI931
aI932
aI935
aI936
aI936
aI937
aI938
aI940
aI940
aI940
aI943
aI945
aI945
aI948
aI950
aI951
aI951
aI951
aI952
aI953
aI954
aI956
aI959
aI961
aI962
aI962
aI963
aI964
aI965
aI967
aI969
aI970
aI971
aI971
aI972
aI974
aI974
aI974
aI974
aI976
aI976
aI979
aI981
aI982
aI984
aI985
aI986
aI989
aI991
aI993
aI994
aI996
aI999
aI1001
aI1002
aI1003
aI1005
aI1005
aI1005
aI1008
aI1010
aI1012
aI1012
aI1015
aI1016
aI1016
aI1018
aI1021
aI1022
aI1022
aI1025
aI1027
aI1027
aI1028
aI1030
aI1032
aI1032
aI1033
aI1035
aI1037
aI1039
aI1039
aI1040
aI1040
aI1041
aI1042
aI1043
aI1045
aI1046
aI1048
aI1050
aI1050
aI1051
aI1052
aI1053
aI1053
aI1055
aI1057
aI1057
aI1057
aI1057
aI1058
aI1058
aI1058
aI1059
aI1062
aI1064
aI1067
aI1067
aI1070
aI1072
aI1073
aI1073
aI1077
aI1079
aI1079
aI1080
aI1081
aI1083
aI1085
aI1086
aI1088
aI1089
aI1090
aI1093
aI1095
aI1095
aI1095
aI1095
aI1096
aI1096
aI1098
aI1098
aI1100
aI1100
aI1101
aI1103
aI1106
aI1108
aI1110
aI1113
aI1114
aI1116
aI1116
aI1118
aI1119
aI1121
aI1122
aI1122
aI1122
aI1124
aI1124
aI1127
aI1127
aI1127
aI1128
aI1129
aI1129
aI1130
aI1130
aI1130
aI1131
aI1132
aI1133
aI1135
aI1135
aI1138
aI1138
aI1138
aI1139
aI1140
aI1142
aI1142
aI1145
aI1146
aI1147
aI1147
aI1149
aI1149
aI1149
aI1150
aI1151
aI1151
aI1152
aI1153
aI1153
aI1154
aI1155
aI1156
asS'T'
p16
(lp17
I0
aI2
aI2
aI3
aI4
aI5
aI6
aI7
aI8
aI9
aI9
aI11
aI11
aI11
aI12
aI14
aI16
aI21
aI24
aI28
aI30
aI32
aI34
aI34
aI34
aI35
aI38
aI40
aI43
aI45
aI46
aI46
aI48
aI52
aI52
aI53
aI55
aI55
aI56
aI56
aI57
aI58
aI59
aI59
aI59
aI60
aI61
aI62
aI62
aI63
aI64
aI64
aI64
aI66
aI66
aI67
aI67
aI68
aI68
aI70
aI71
aI72
aI74
aI75
aI78
aI79
aI80
aI80
aI80
aI82
aI83
aI84
aI87
aI90
aI93
aI95
aI97
aI97
aI98
aI101
aI101
aI101
aI102
aI102
aI103
aI104
aI106
aI109
aI109
aI109
aI111
aI113
aI114
aI117
aI118
aI120
aI123
aI124
aI125
aI125
aI126
aI127
aI129
aI130
aI131
aI132
aI133
aI134
aI135
aI136
aI136
aI138
aI139
aI140
aI142
aI144
aI145
aI146
aI148
aI149
aI152
aI156
aI157
aI159
aI161
aI165
aI165
aI168
aI168
aI169
aI171
aI172
aI173
aI173
aI173
aI173
aI173
aI175
aI175
aI176
aI177
aI178
aI180
aI180
aI180
aI180
aI180
aI180
aI181
aI181
aI181
aI181
aI182
aI182
aI182
aI182
aI182
aI184
aI184
aI185
aI186
aI186
aI188
aI188
aI188
aI188
aI188
aI188
aI189
aI189
aI190
aI190
aI191
aI191
aI192
aI192
aI193
aI193
aI193
aI194
aI194
aI195
aI196
aI197
aI198
aI199
aI200
aI201
aI202
aI203
aI203
aI205
aI206
aI206
aI207
aI209
aI209
aI210
aI211
aI213
aI215
aI217
aI220
aI221
aI223
aI224
aI226
aI227
aI228
aI228
aI229
aI230
aI232
aI232
aI234
aI236
aI238
aI240
aI241
aI241
aI242
aI243
aI244
aI246
aI250
aI251
aI252
aI256
aI258
aI260
aI261
aI264
aI266
aI270
aI273
aI276
aI277
aI278
aI280
aI281
aI281
aI282
aI284
aI284
aI288
aI291
aI291
aI293
aI296
aI299
aI299
aI299
aI300
aI303
aI304
aI305
aI307
aI310
aI312
aI314
aI317
aI318
aI322
aI323
aI324
aI328
aI330
aI334
aI334
aI335
aI337
aI338
aI342
aI343
aI345
aI345
aI345
aI346
aI348
aI348
aI350
aI353
aI355
aI355
aI356
aI358
aI359
aI360
aI363
aI365
aI367
aI368
aI370
aI372
aI375
aI378
aI379
aI380
aI381
aI384
aI385
aI386
aI388
aI391
aI394
aI397
aI397
aI399
aI402
aI403
aI403
aI405
aI407
aI407
aI407
aI409
aI410
aI413
aI414
aI414
aI415
aI416
aI418
aI421
aI424
aI425
aI428
aI430
aI430
aI430
aI430
aI431
aI432
aI433
aI434
aI435
aI435
aI435
aI436
aI439
aI440
aI441
aI443
aI444
aI445
aI446
aI446
aI447
aI449
aI452
aI453
aI455
aI455
aI457
aI458
aI460
aI462
aI463
aI463
aI464
aI464
aI464
aI466
aI468
aI470
aI470
aI471
aI473
aI474
aI475
aI476
aI479
aI480
aI482
aI482
aI482
aI484
aI485
aI487
aI488
aI489
aI490
aI491
aI493
aI495
aI495
aI497
aI499
aI501
aI501
aI501
aI502
aI502
aI505
aI508
aI510
aI512
aI514
aI515
aI519
aI520
aI522
aI524
aI525
aI526
aI526
aI526
aI526
aI526
aI528
aI528
aI529
aI530
aI532
aI534
aI536
aI537
aI538
aI539
aI541
aI543
aI544
aI545
aI548
aI549
aI550
aI552
aI555
aI556
aI557
aI559
aI560
aI562
aI562
aI563
aI563
aI564
aI564
aI565
aI566
aI566
aI568
aI568
aI568
aI571
aI572
aI572
aI575
aI578
aI578
aI579
aI581
aI582
aI583
aI583
aI585
aI586
aI586
aI590
aI592
aI593
aI596
aI598
aI599
aI600
aI602
aI602
aI603
aI604
aI606
aI607
aI610
aI610
aI611
aI612
aI613
aI613
aI615
aI617
aI618
aI619
aI621
aI624
aI625
aI626
aI627
aI629
aI629
aI631
aI632
aI632
aI632
aI633
aI633
aI636
aI637
aI638
aI639
aI639
aI642
aI643
aI644
aI646
aI648
aI652
aI655
aI657
aI661
aI663
aI665
aI667
aI670
aI675
aI677
aI679
aI682
aI684
aI686
aI686
aI689
aI690
aI691
aI695
aI696
aI697
aI700
aI701
aI704
aI707
aI709
aI712
aI714
aI718
aI722
aI725
aI727
aI731
aI734
aI735
aI737
aI739
aI741
aI743
aI745
aI747
aI751
aI752
aI756
aI760
aI761
aI764
aI766
aI766
aI766
aI768
aI771
aI774
aI776
aI778
aI778
aI780
aI781
aI781
aI782
aI785
aI787
aI787
aI789
aI790
aI790
aI792
aI793
aI795
aI798
aI800
aI803
aI805
aI807
aI808
aI811
aI813
aI814
aI816
aI818
aI819
aI821
aI822
aI824
aI826
aI826
aI827
aI828
aI831
aI833
aI834
aI834
aI836
aI838
aI839
aI841
aI846
aI848
aI851
aI854
aI854
aI856
aI856
aI859
aI862
aI866
aI868
aI871
aI873
aI876
aI879
aI880
aI881
aI885
aI887
aI888
aI891
aI894
aI897
aI899
aI901
aI902
aI903
aI907
aI910
aI912
aI914
aI916
aI920
aI921
aI922
aI924
aI927
aI929
aI932
aI936
aI939
aI940
aI943
aI946
aI950
aI954
aI956
aI959
aI961
aI963
aI966
aI967
aI969
aI971
aI971
aI974
aI974
aI977
aI979
aI980
aI984
aI987
aI990
aI995
aI997
aI999
aI1003
aI1005
aI1009
aI1010
aI1011
aI1014
aI1017
aI1022
aI1025
aI1029
aI1031
aI1031
aI1032
aI1033
aI1034
aI1037
aI1037
aI1038
aI1039
aI1041
aI1041
aI1042
aI1043
aI1044
aI1044
aI1047
aI1047
aI1047
aI1048
aI1049
aI1051
aI1053
aI1055
aI1055
aI1058
aI1060
aI1060
aI1060
aI1062
aI1063
aI1063
aI1064
aI1064
aI1066
aI1068
aI1070
aI1071
aI1071
aI1073
aI1073
aI1075
aI1075
aI1075
aI1078
aI1081
aI1084
aI1085
aI1086
aI1086
aI1088
aI1089
aI1093
aI1093
aI1094
aI1096
aI1097
aI1099
aI1100
aI1102
aI1103
aI1105
aI1108
aI1110
aI1111
aI1112
aI1112
aI1113
aI1115
aI1117
aI1118
aI1118
aI1120
aI1122
aI1123
aI1126
aI1127
aI1128
aI1130
aI1133
aI1136
aI1139
aI1140
aI1144
aI1145
aI1146
aI1147
aI1149
aI1151
aI1154
aI1155
aI1157
aI1160
aI1162
aI1163
aI1167
aI1169
aI1171
aI1171
aI1173
aI1177
aI1179
aI1180
aI1182
aI1183
aI1184
aI1187
aI1191
aI1193
aI1196
aI1198
aI1201
aI1202
aI1204
aI1208
aI1208
aI1212
aI1214
aI1217
aI1219
aI1220
aI1224
aI1226
aI1226
aI1227
aI1227
aI1229
aI1231
aI1232
aI1232
aI1235
aI1236
aI1238
aI1240
aI1242
aI1244
aI1246
aI1246
aI1249
aI1251
aI1253
aI1255
aI1257
aI1259
aI1261
aI1265
aI1268
aI1269
aI1271
aI1275
aI1277
aI1278
aI1280
aI1281
aI1282
aI1286
aI1290
aI1290
aI1291
aI1293
aI1296
aI1297
aI1299
aI1301
aI1302
aI1306
aI1309
aI1311
aI1312
aI1315
aI1315
aI1317
aI1317
aI1319
aI1320
aI1322
aI1324
aI1326
aI1329
aI1333
aI1336
aI1338
aI1341
aI1344
aI1349
aI1352
aI1354
aI1356
aI1359
aI1361
aI1362
aI1363
aI1364
aI1364
aI1367
aI1369
aI1369
aI1373
aI1375
aI1376
aI1376
aI1378
aI1380
aI1383
aI1385
aI1385
aI1386
aI1388
aI1390
aI1390
aI1392
aI1394
aI1396
aI1398
aI1400
aI1402
aI1403
aI1403
aI1403
aI1403
aI1405
aI1406
aI1407
aI1411
aI1411
aI1413
aI1415
aI1416
aI1416
aI1419
aI1420
aI1421
aI1425
aI1426
aI1429
aI1430
aI1430
aI1431
aI1432
aI1436
aI1440
aI1441
aI1442
aI1444
aI1446
aI1446
aI1447
aI1449
aI1450
aI1452
aI1454
aI1456
aI1459
aI1460
aI1461
aI1461
aI1464
aI1465
aI1467
aI1469
aI1470
aI1470
aI1471
aI1471
aI1474
aI1475
aI1477
aI1478
aI1479
aI1479
aI1481
aI1485
aI1485
aI1486
aI1488
aI1489
aI1490
aI1491
aI1491
aI1494
aI1495
aI1495
aI1496
aI1500
aI1501
aI1502
aI1503
aI1506
aI1507
aI1508
aI1508
aI1509
aI1510
aI1511
aI1511
aI1515
aI1516
aI1519
aI1520
aI1521
aI1521
aI1524
aI1525
aI1525
aI1526
aI1529
aI1530
aI1532
aI1535
aI1537
aI1538
aI1540
aI1540
aI1540
aI1541
aI1543
aI1544
aI1544
aI1546
aI1547
aI1550
aI1552
aI1556
aI1556
aI1558
aI1560
aI1561
aI1562
aI1563
aI1565
aI1569
aI1572
aI1574
aI1577
aI1580
aI1581
aI1582
aI1584
aI1585
aI1587
aI1589
aI1589
aI1591
aI1594
aI1595
aI1596
aI1598
aI1599
aI1600
aI1604
aI1604
aI1605
aI1606
aI1606
aI1606
aI1606
aI1608
aI1611
aI1612
aI1613
aI1615
aI1617
aI1619
aI1621
aI1623
aI1627
aI1628
aI1631
aI1632
aI1635
aI1636
aI1638
aI1639
aI1641
aI1643
aI1645
aI1645
aI1647
aI1648
aI1649
aI1649
aI1652
aI1654
aI1655
aI1657
aI1659
aI1662
aI1662
aI1664
aI1665
aI1666
aI1668
aI1669
aI1671
aI1674
aI1675
aI1676
aI1677
aI1679
aI1680
aI1681
aI1682
aI1684
asS'G'
p18
(lp19
I0
aI0
aI0
aI1
aI4
aI5
aI5
aI6
aI7
aI8
aI10
aI10
aI10
aI10
aI12
aI13
aI13
aI13
aI14
aI15
aI15
aI16
aI18
aI19
aI19
aI19
aI19
aI20
aI22
aI23
aI23
aI24
aI24
aI25
aI25
aI28
aI29
aI30
aI30
aI31
aI31
aI32
aI32
aI33
aI34
aI35
aI36
aI36
aI38
aI39
aI39
aI40
aI42
aI44
aI45
aI48
aI48
aI49
aI52
aI53
aI54
aI55
aI57
aI60
aI60
aI60
aI60
aI60
aI60
aI61
aI62
aI62
aI63
aI64
aI65
aI67
aI67
aI69
aI70
aI70
aI71
aI73
aI74
aI76
aI77
aI78
aI79
aI79
aI80
aI84
aI86
aI87
aI90
aI91
aI93
aI94
aI95
aI96
aI98
aI101
aI101
aI104
aI107
aI109
aI111
aI111
aI112
aI115
aI117
aI119
aI123
aI123
aI124
aI125
aI126
aI127
aI128
aI129
aI131
aI133
aI134
aI134
aI135
aI138
aI139
aI140
aI143
aI145
aI147
aI148
aI149
aI152
aI153
aI154
aI156
aI158
aI159
aI159
aI159
aI161
aI162
aI162
aI163
aI166
aI169
aI173
aI174
aI174
aI176
aI177
aI177
aI182
aI183
aI183
aI183
aI183
aI186
aI187
aI187
aI188
aI189
aI189
aI191
aI194
aI195
aI198
aI200
aI203
aI205
aI205
aI206
aI208
aI210
aI213
aI215
aI217
aI219
aI221
aI221
aI222
aI223
aI226
aI228
aI231
aI234
aI235
aI238
aI241
aI242
aI243
aI245
aI247
aI250
aI254
aI256
aI256
aI256
aI256
aI256
aI256
aI256
aI256
aI256
aI256
aI256
aI257
aI259
aI259
aI259
aI260
aI263
aI267
aI267
aI269
aI269
aI270
aI271
aI272
aI273
aI276
aI278
aI279
aI282
aI282
aI282
aI283
aI285
aI286
aI287
aI287
aI288
aI289
aI291
aI292
aI293
aI294
aI296
aI299
aI300
aI302
aI304
aI305
aI305
aI309
aI310
aI312
aI314
aI317
aI317
aI319
aI321
aI322
aI323
aI323
aI325
aI326
aI326
aI327
aI327
aI328
aI329
aI332
aI332
aI333
aI333
aI334
aI335
aI335
aI337
aI339
aI340
aI342
aI343
aI346
aI346
aI348
aI349
aI350
aI351
aI352
aI353
aI354
aI354
aI355
aI356
aI358
aI360
aI361
aI362
aI363
aI365
aI368
aI370
aI371
aI372
aI373
aI373
aI375
aI376
aI377
aI378
aI379
aI379
aI379
aI381
aI381
aI383
aI384
aI384
aI387
aI387
aI389
aI389
aI389
aI389
aI390
aI393
aI393
aI395
aI399
aI400
aI402
aI402
aI403
aI403
aI406
aI406
aI406
aI407
aI408
aI411
aI413
aI416
aI417
aI420
aI423
aI427
aI430
aI433
aI435
aI435
aI437
aI440
aI443
aI443
aI444
aI447
aI448
aI449
aI451
aI451
aI452
aI454
aI456
aI457
aI458
aI458
aI459
aI460
aI463
aI465
aI466
aI466
aI466
aI467
aI468
aI469
aI470
aI470
aI472
aI473
aI473
aI474
aI475
aI476
aI477
aI477
aI479
aI479
aI480
aI484
aI485
aI485
aI486
aI487
aI490
aI491
aI492
aI493
aI497
aI498
aI499
aI503
aI505
aI505
aI506
aI507
aI509
aI511
aI511
aI512
aI514
aI515
aI515
aI515
aI518
aI520
aI522
aI525
aI525
aI527
aI530
aI532
aI532
aI533
aI536
aI538
aI541
aI544
aI544
aI545
aI546
aI548
aI549
aI552
aI553
aI555
aI555
aI557
aI558
aI559
aI560
aI562
aI565
aI568
aI569
aI572
aI574
aI576
aI580
aI581
aI582
aI582
aI585
aI586
aI588
aI591
aI593
aI595
aI597
aI597
aI599
aI602
aI604
aI608
aI611
aI615
aI619
aI620
aI622
aI622
aI623
aI623
aI625
aI627
aI628
aI632
aI634
aI636
aI638
aI639
aI641
aI643
aI646
aI647
aI648
aI651
aI652
aI653
aI654
aI656
aI657
aI659
aI661
aI663
aI664
aI665
aI668
aI670
aI672
aI674
aI678
aI680
aI682
aI683
aI685
aI686
aI687
aI688
aI689
aI689
aI690
aI690
aI691
aI691
aI692
aI693
aI693
aI693
aI693
aI694
aI695
aI695
aI696
aI697
aI697
aI697
aI697
aI701
aI701
aI704
aI705
aI705
aI705
aI705
aI705
aI706
aI707
aI709
aI709
aI710
aI711
aI711
aI712
aI714
aI715
aI716
aI717
aI720
aI720
aI721
aI724
aI726
aI727
aI728
aI728
aI728
aI729
aI730
aI732
aI732
aI732
aI733
aI734
aI736
aI737
aI737
aI737
aI739
aI741
aI743
aI747
aI747
aI747
aI747
aI747
aI750
aI752
aI752
aI754
aI754
aI755
aI755
aI755
aI756
aI756
aI756
aI757
aI757
aI758
aI760
aI762
aI764
aI766
aI767
aI769
aI772
aI774
aI776
aI778
aI779
aI780
aI780
aI780
aI781
aI783
aI785
aI786
aI786
aI787
aI787
aI788
aI788
aI788
aI791
aI792
aI793
aI793
aI793
aI793
aI795
aI796
aI797
aI797
aI798
aI799
aI800
aI800
aI802
aI804
aI805
aI806
aI807
aI807
aI808
aI810
aI810
aI810
aI810
aI811
aI811
aI812
aI812
aI812
aI813
aI814
aI814
aI814
aI815
aI815
aI816
aI816
aI816
aI816
aI816
aI816
aI817
aI817
aI817
aI817
aI817
aI818
aI819
aI819
aI820
aI820
aI821
aI821
aI822
aI822
aI822
aI822
aI824
aI824
aI825
aI826
aI826
aI826
aI826
aI827
aI827
aI828
aI829
aI829
aI829
aI829
aI832
aI835
aI837
aI840
aI842
aI843
aI845
aI846
aI848
aI850
aI854
aI856
aI856
aI856
aI858
aI859
aI859
aI861
aI862
aI865
aI867
aI868
aI869
aI869
aI870
aI871
aI873
aI875
aI878
aI880
aI882
aI883
aI885
aI886
aI887
aI889
aI891
aI893
aI894
aI897
aI897
aI900
aI903
aI904
aI904
aI905
aI906
aI908
aI909
aI911
aI913
aI913
aI914
aI915
aI917
aI918
aI920
aI920
aI922
aI925
aI925
aI926
aI926
aI928
aI928
aI930
aI932
aI932
aI932
aI933
aI935
aI935
aI935
aI936
aI936
aI936
aI937
aI937
aI937
aI937
aI937
aI937
aI937
aI939
aI939
aI939
aI940
aI940
aI940
aI941
aI942
aI944
aI946
aI949
aI949
aI949
aI949
aI949
aI950
aI950
aI952
aI955
aI956
aI958
aI958
aI959
aI960
aI961
aI963
aI964
aI964
aI964
aI967
aI967
aI969
aI970
aI973
aI973
aI975
aI978
aI978
aI978
aI978
aI979
aI981
aI981
aI982
aI983
aI986
aI986
aI988
aI990
aI990
aI993
aI994
aI995
aI997
aI998
aI999
aI1001
aI1002
aI1003
aI1003
aI1004
aI1004
aI1005
aI1006
aI1006
aI1006
aI1006
aI1006
aI1008
aI1010
aI1011
aI1011
aI1011
aI1012
aI1014
aI1015
aI1016
aI1016
aI1017
aI1017
aI1019
aI1019
aI1021
aI1022
aI1025
aI1026
aI1029
aI1029
aI1034
aI1034
aI1037
aI1038
aI1038
aI1040
aI1040
aI1040
aI1041
aI1042
aI1042
aI1042
aI1042
aI1042
aI1042
aI1043
aI1044
aI1045
aI1045
aI1045
aI1048
aI1050
aI1050
aI1050
aI1050
aI1050
aI1050
aI1051
aI1052
aI1052
aI1053
aI1054
aI1054
aI1054
aI1055
aI1055
aI1056
aI1057
aI1057
aI1058
aI1058
aI1059
aI1060
aI1061
aI1062
aI1064
aI1066
aI1068
aI1069
aI1069
aI1070
aI1070
aI1070
aI1070
aI1071
aI1071
aI1072
aI1072
aI1072
aI1074
aI1074
aI1074
aI1075
aI1076
aI1078
aI1079
aI1081
aI1081
aI1081
aI1082
aI1083
aI1083
aI1084
aI1084
aI1085
aI1085
aI1086
aI1087
aI1087
aI1090
aI1091
aI1092
aI1095
aI1097
aI1097
aI1098
aI1098
aI1099
aI1100
aI1100
aI1101
aI1102
aI1102
aI1102
aI1102
aI1102
aI1103
aI1104
aI1104
aI1104
aI1106
aI1106
aI1106
aI1106
aI1106
aI1106
aI1109
aI1109
aI1111
aI1112
aI1113
aI1113
aI1113
aI1113
aI1114
aI1114
aI1114
aI1115
aI1118
aI1120
aI1120
aI1120
aI1123
aI1123
aI1125
aI1125
aI1127
aI1128
aI1131
aI1131
aI1133
aI1135
aI1137
aI1138
aI1138
aI1139
aI1139
aI1140
aI1141
aI1142
aI1144
aI1147
aI1148
aI1149
aI1149
aI1152
aI1154
aI1154
aI1154
aI1154
aI1155
aI1157
aI1157
aI1158
aI1161
aI1161
aI1162
aI1165
aI1165
aI1166
aI1166
aI1166
aI1167
aI1169
aI1169
aI1171
aI1172
aI1172
aI1173
aI1177
aI1178
aI1178
aI1180
aI1181
aI1184
aI1185
aI1187
aI1187
aI1189
aI1189
aI1190
aI1190
aI1190
aI1191
aI1192
aI1193
aI1194
aI1195
aI1195
aI1196
aI1199
aI1200
aI1201
aI1201
aI1202
aI1203
aI1205
aI1206
aI1208
aI1211
aI1213
aI1215
aI1217
aI1219
aI1222
aI1223
aI1224
aI1225
aI1226
aI1227
aI1229
aI1230
aI1231
aI1232
aI1232
aI1233
aI1234
aI1237
aI1238
aI1238
aI1238
aI1240
aI1241
aI1244
aI1246
aI1247
aI1249
aI1251
aI1253
aI1254
aI1254
asS'$'
p20
(lp21
I0
aI0
aI0
aI0
aI0
aI0
aI0
aI0
aI0
aI0
aI0
aI0
aI0
aI0
aI0
aI0
aI0
aI0
aI0
aI0
aI0
aI0
aI0
aI0
aI0
aI0
aI0
aI0
aI0
aI0
aI0
aI0
aI0
aI0
aI0
aI0
aI0
aI0
aI0
aI0
aI0
aI0
aI0
aI0
aI0
aI0
aI0
aI0
aI0
aI0
aI0
aI0
aI0
aI0
aI0
aI0
aI0
aI0
aI0
aI0
aI0
aI0
aI0
aI0
aI0
aI0
aI0
aI0
aI0
aI0
aI0
aI0
aI0
aI0
aI0
aI0
aI0
aI0
aI0
aI0
aI0
aI0
aI0
aI0
aI0
aI0
aI0
aI0
aI0
aI0
aI0
aI0
aI0
aI0
aI0
aI0
aI0
aI0
aI0
aI0
aI0
aI0
aI0
aI0
aI0
aI0
aI0
aI0
aI0
aI0
aI0
aI0
aI0
aI0
aI0
aI0
aI0
aI0
aI0
aI0
aI0
aI0
aI0
aI0
aI0
aI0
aI0
aI0
aI0
aI0
aI0
aI0
aI0
aI0
aI0
aI0
aI0
aI0
aI0
aI0
aI0
aI0
aI0
aI0
aI0
aI0
aI0
aI0
aI0
aI0
aI0
aI0
aI0
aI0
aI0
aI0
aI0
aI0
aI0
aI0
aI0
aI0
aI0
aI0
aI0
aI0
aI0
aI0
aI0
aI0
aI0
aI0
aI0
aI0
aI0
aI0
aI0
aI0
aI0
aI0
aI0
aI0
aI0
aI0
aI0
aI0
aI0
aI0
aI0
aI0
aI0
aI0
aI0
aI0
aI0
aI0
aI0
aI0
aI0
aI0
aI0
aI0
aI0
aI0
aI0
aI0
aI0
aI0
aI0
aI0
aI0
aI0
aI0
aI0
aI0
aI0
aI0
aI0
aI0
aI0
aI0
aI0
aI0
aI0
aI0
aI0
aI0
aI0
aI0
aI0
aI0
aI0
aI0
aI0
aI0
aI0
aI0
aI0
aI0
aI0
aI0
aI0
aI0
aI0
aI0
aI0
aI0
aI0
aI0
aI0
aI0
aI0
aI0
aI0
aI0
aI0
aI0
aI0
aI0
aI0
aI0
aI0
aI0
aI0
aI0
aI0
aI0
aI0
aI0
aI0
aI0
aI0
aI0
aI0
aI0
aI0
aI0
aI0
aI0
aI0
aI0
aI0
aI0
aI0
aI0
aI0
aI0
aI0
aI0
aI0
aI0
aI0
aI0
aI0
aI0
aI0
aI0
aI0
aI0
aI0
aI0
aI0
aI0
aI0
aI0
aI0
aI0
aI0
aI0
aI0
aI0
aI0
aI0
aI0
aI0
aI0
aI0
aI0
aI0
aI0
aI0
aI0
aI0
aI0
aI0
aI0
aI0
aI0
aI0
aI0
aI0
aI0
aI0
aI0
aI0
aI0
aI0
aI0
aI0
aI0
aI0
aI0
aI0
aI0
aI0
aI0
aI0
aI0
aI0
aI0
aI0
aI0
aI0
aI0
aI0
aI0
aI0
aI0
aI0
aI0
aI0
aI0
aI0
aI0
aI0
aI0
aI0
aI0
aI0
aI0
aI0
aI0
aI0
aI0
aI0
aI0
aI0
aI0
aI0
aI0
aI0
aI0
aI0
aI0
aI0
aI0
aI0
aI0
aI0
aI0
aI0
aI0
aI0
aI0
aI0
aI0
aI0
aI0
aI0
aI0
aI0
aI0
aI0
aI0
aI0
aI0
aI0
aI0
aI0
aI0
aI0
aI0
aI0
aI0
aI0
aI0
aI0
aI0
aI0
aI0
aI0
aI0
aI0
aI0
aI0
aI0
aI0
aI0
aI0
aI0
aI0
aI0
aI0
aI0
aI0
aI0
aI0
aI0
aI0
aI0
aI0
aI0
aI0
aI0
aI0
aI0
aI0
aI0
aI0
aI0
aI0
aI0
aI0
aI0
aI0
aI0
aI0
aI0
aI0
aI0
aI0
aI0
aI0
aI0
aI0
aI0
aI0
aI0
aI0
aI0
aI0
aI0
aI0
aI0
aI0
aI0
aI0
aI0
aI0
aI0
aI0
aI0
aI0
aI0
aI0
aI0
aI0
aI0
aI0
aI0
aI0
aI0
aI0
aI0
aI0
aI0
aI0
aI0
aI0
aI0
aI0
aI0
aI0
aI0
aI0
aI0
aI0
aI0
aI0
aI0
aI0
aI0
aI0
aI0
aI0
aI0
aI0
aI0
aI0
aI0
aI0
aI0
aI0
aI0
aI0
aI0
aI0
aI0
aI0
aI0
aI0
aI0
aI0
aI0
aI0
aI1
aI1
aI1
aI1
aI1
aI1
aI1
aI1
aI1
aI1
aI1
aI1
aI1
aI1
aI1
aI1
aI1
aI1
aI1
aI1
aI1
aI1
aI1
aI1
aI1
aI1
aI1
aI1
aI1
aI1
aI1
aI1
aI1
aI1
aI1
aI1
aI1
aI1
aI1
aI1
aI1
aI1
aI1
aI1
aI1
aI1
aI1
aI1
aI1
aI1
aI1
aI1
aI1
aI1
aI1
aI1
aI1
aI1
aI1
aI1
aI1
aI1
aI1
aI1
aI1
aI1
aI1
aI1
aI1
aI1
aI1
aI1
aI1
aI1
aI1
aI1
aI1
aI1
aI1
aI1
aI1
aI1
aI1
aI1
aI1
aI1
aI1
aI1
aI1
aI1
aI1
aI1
aI1
aI1
aI1
aI1
aI1
aI1
aI1
aI1
aI1
aI1
aI1
aI1
aI1
aI1
aI1
aI1
aI1
aI1
aI1
aI1
aI1
aI1
aI1
aI1
aI1
aI1
aI1
aI1
aI1
aI1
aI1
aI1
aI1
aI1
aI1
aI1
aI1
aI1
aI1
aI1
aI1
aI1
aI1
aI1
aI1
aI1
aI1
aI1
aI1
aI1
aI1
aI1
aI1
aI1
aI1
aI1
aI1
aI1
aI1
aI1
aI1
aI1
aI1
aI1
aI1
aI1
aI1
aI1
aI1
aI1
aI1
aI1
aI1
aI1
aI1
aI1
aI1
aI1
aI1
aI1
aI1
aI1
aI1
aI1
aI1
aI1
aI1
aI1
aI1
aI1
aI1
aI1
aI1
aI1
aI1
aI1
aI1
aI1
aI1
aI1
aI1
aI1
aI1
aI1
aI1
aI1
aI1
aI1
aI1
aI1
aI1
aI1
aI1
aI1
aI1
aI1
aI1
aI1
aI1
aI1
aI1
aI1
aI1
aI1
aI1
aI1
aI1
aI1
aI1
aI1
aI1
aI1
aI1
aI1
aI1
aI1
aI1
aI1
aI1
aI1
aI1
aI1
aI1
aI1
aI1
aI1
aI1
aI1
aI1
aI1
aI1
aI1
aI1
aI1
aI1
aI1
aI1
aI1
aI1
aI1
aI1
aI1
aI1
aI1
aI1
aI1
aI1
aI1
aI1
aI1
aI1
aI1
aI1
aI1
aI1
aI1
aI1
aI1
aI1
aI1
aI1
aI1
aI1
aI1
aI1
aI1
aI1
aI1
aI1
aI1
aI1
aI1
aI1
aI1
aI1
aI1
aI1
aI1
aI1
aI1
aI1
aI1
aI1
aI1
aI1
aI1
aI1
aI1
aI1
aI1
aI1
aI1
aI1
aI1
aI1
aI1
aI1
aI1
aI1
aI1
aI1
aI1
aI1
aI1
aI1
aI1
aI1
aI1
aI1
aI1
aI1
aI1
aI1
aI1
aI1
aI1
aI1
aI1
aI1
aI1
aI1
aI1
aI1
aI1
aI1
aI1
aI1
aI1
aI1
aI1
aI1
aI1
aI1
aI1
aI1
aI1
aI1
aI1
aI1
aI1
aI1
aI1
aI1
aI1
aI1
aI1
aI1
aI1
aI1
aI1
aI1
aI1
aI1
aI1
aI1
aI1
aI1
aI1
aI1
aI1
aI1
aI1
aI1
aI1
aI1
aI1
aI1
aI1
aI1
aI1
aI1
aI1
aI1
aI1
aI1
aI1
aI1
aI1
aI1
aI1
aI1
aI1
aI1
aI1
aI1
aI1
aI1
aI1
aI1
aI1
aI1
aI1
aI1
aI1
aI1
aI1
aI1
aI1
aI1
aI1
aI1
aI1
aI1
aI1
aI1
aI1
aI1
aI1
aI1
aI1
aI1
aI1
aI1
aI1
aI1
aI1
aI1
aI1
aI1
aI1
aI1
aI1
aI1
aI1
aI1
aI1
aI1
aI1
aI1
aI1
aI1
aI1
aI1
aI1
aI1
aI1
aI1
aI1
aI1
aI1
aI1
aI1
aI1
aI1
aI1
aI1
aI1
aI1
aI1
aI1
aI1
aI1
aI1
aI1
aI1
aI1
aI1
aI1
aI1
aI1
aI1
aI1
aI1
aI1
aI1
aI1
aI1
aI1
aI1
aI1
aI1
aI1
aI1
aI1
aI1
aI1
aI1
aI1
aI1
aI1
aI1
aI1
aI1
aI1
aI1
aI1
aI1
aI1
aI1
aI1
aI1
aI1
aI1
aI1
aI1
aI1
aI1
aI1
aI1
aI1
aI1
aI1
aI1
aI1
aI1
aI1
aI1
aI1
aI1
aI1
aI1
aI1
aI1
aI1
aI1
aI1
aI1
aI1
aI1
aI1
aI1
aI1
aI1
aI1
aI1
aI1
aI1
aI1
aI1
aI1
aI1
assbsS'bwt'
p22
S'ACTCTACCCCCCCTGCGTGGAATGAAAAATATAAGCTGCCATGAAAGAAGATAAATCCCCAAACCACTGGATTGAAAATATTTTTTTTTGCTTTGTTTAACGATTCGATGTCCCCGAAAAATACAAATATTCGATTTTGTGGCATTATCCCGACAAACCTTTTTGTCACACGTGAGTCGTAAAGACATCCCCGACACCCCTAGATACCCTAAAGAAAGAAAACGATCCGTATAACAGGCAACTGCACCCATCGAACCAGGATATGGAAGCCTGGAGAAACACACTGGGGCATTGACTACGAACATGGTTGATCGGGTCATTTCACACATACAAACCCAAAAAGTTAAGTACCATACTCGTTTGTTAGTTTCTGTAGAATATGCGAAGAACTTCATTAACAGGGAAAGACCTAAAGGTCAAGAGAATAATGTTATCTGAAAAGCGGGGGTATCTTGAGAGGTTCGTTGAGCTTAAGTATTTGACATGGGTAAGCGGAAAACTCTGGGGTTGGTGAGCAATGGACTCAACAGTGGGTAGAGCTGTCGAAGGGGAATATTACGACGTCCATGCTGTTACGATCCTCCGAGGTATTCGGCTGCTTTATTTACTGCTGTGGTGTAATGTTTGGCAGGTGTTCAGGCCGTAATGTACCGTGGTAAGCAAAGCAACGGACGCGACGCCCACTTACCAAGGCTAGAATAAAAATTTCCGAAGGGCCGGGGGGAGAAGCCAAAACGACTGAAGCAAAACAGGGGGCTCGCAAAACAAAAAAAAAAAGGGCTGCATCCCAAAGTAATGAAAAAACATTGGAAGGGACAGACGACGGGGCACGGGCAGTAGCCAAAAGATCAGCGCCTGCGCGCCGGATGCGCGAGAGTGCACACGGCCAAAACTAGCACAGGTAGGCCTGGATGGGGTGAGATACGCGGGTCGGGTTAAAGCAGTAAAGAGTAGTGGAGGTGGCGGGTGAATCACTAACAAATAACATAAACAATTATTCAATTCCTTTCCATAAACCATTTACAGTCTGGAATCACTACAAAGAAGGGCTGGGTGCCTTCAAGGAATCTATGTACCGATTTCTCGTAAGCGAGGAGGTAAATAGCTGGGATCAATTTTCTTCCGATAGAGTTTTGTCAGTTATAACTAAGTGTATGTTGCTTTGTATGTTGTTTATAAGGGTAGGGTCATCGGCTACCGGCTCCGCCATTGGGGCTGTTTTGTGTACGCGGTGGTTCTTATGTTGGAAAGAAAGCCCGTCATTATTGGACCGATCCTAATTGTTACCTATAGTTCGTTTATGGAGTTCTTTGACAACCCTTTTGTTTACGTTTTAAGCGCGGCCTTCCGTTGGCCTTGTTGGTCGAATTAGGCACGACCACAAGTGTCTACACAGTGATATCGTTTTCAACGCCAATCAGTGATGGAGCTGTACATTCGTTTACGTGTAGCGTGGTAGTGGTACTTTGTATTCTGATCCCGTCGCCCGTCGTTTCATACGACTGCTTCCCTCTTCTTGGTTTCTAAACGGTTGCATCTCTGGATGAAACAATGGTTCACTAAAAAACCCAGATATGAGGTATTATAGAGTGGGCGCTGAAATGGCTACCTCTTGTTACTTGTGGCTTCTATAACTAAAGAAGACAAGCGGGTCGCGTGAGAGATAGGTAGGAGGTGAGGGGAAGGGGTAGGGTTTACTCAAGAGTGGTTGTGAGGACTCCCTGCAAGCGGCCGTCGTTCAGTTTGCCAATTCGATGGACACGTTGCGATAGATTAATATACGCCTAAGCCGATGGACGCGCCCGAATCTCCTCTCGATCTCCGCACGATAGCCTTATAAACGGATACCTGTACTTTGCCATAAGTCAAAGAACCGCATTAGCGATCTATCACTCGTGGGGCTCGACCATATCTCGGTTCCAAGGGATGCTATATGATCTGAGGGGGCCAACTGCCCGGGGTGTTGCTTCTTCCTGACGTTGATGTCCTGGTTTATAATGCGATGTAGTATTCCAAACAATGGGACGCGCAGCGAAACGGGTCATAAGACGATGGGGATCGCATTCATGTCGGTTGTCGGCGTGAGGATGGCTAATGTTCCTAGCAATGCGTATTGTAGGGAATAGGATGTATTTCGGCCTATCGCTGCATACTGAGATTGAGCGGATGGGGACACGGCTGCGCGAGGTAAGGTGGGAAACGTAATAACCCAGGGCTGTTCGCTAGGGGCATGGTTGTGTTAAGGACTACATGGATTCGGGATAGGGGGGATGGTGGTGGGGGGGCTTTTGGTAGTAAAATTTGCTCTAATTGGCCGTGCCCTGCTAGGGGAGGTCTGAAGGTGCTTGAAATTTGGAGCAGGGCGTGATCAATCGAGGCGAGTCATTATAGGACTCGGCTCTCTGATTTGGTGAAGGTGACATCGCATTGCGAGAGGGTATATGGAGGACCGGAGGTAGCGAGAGATATGTGTGAATAAGAAGCTCCAAAGTTGTCTCAAAAAGTAAATATATTCGTTTCTTGTATGCTTATTTTACATTCTCCTATTACGTCGTTTTTTTCGCTTGTATATTTCCCTTACTTACCGGGGCTTCTCGGTGATACCGTTTTAACTCCAAAATAATTTTCCGAGTTATTTTGGACCTTTAGTTCGCTTTCTTTTTTGTGGTTTGTT$CTTTTGCGTTTCGTGGCTAATTGACTTGGTGTGAGTCTGTAAATGTTTTCTATAAATTGTTTTTTGCGGTCTTAATCTATACAGAAAGAAATAGGTTGTTCTCTTATACTCGTGTCCCGGCCTTGGGGGGTACCCACTCCACTTTATCCTCGCAGGTGTGACCCTACCGGCCTCCTTCCGCCCTTACTCTTATTCGTATCTCATTATCCTGCCACTTCTTGCGTTGGTGCCGATGTCTGGTCCGTCTGGATTAGGGTGGCTGTTCGACAGGTACCGAATAGTTCTAATAATGCCCTCAGAGTTCGGCGATTCAATCTCCTGTTTTTATTGATTTACTTCTCGGCCGAGTATCCCCGCTTCTTATCTTTTCTGTAGTCTGTTCTTAGAATTTTGTTAATAAGCGATAATTTTTTGCGCTGCGTGTTATAGTTTTTGCTCATCTGCCTCGTCGCATAATTATTCTTATCTGTATTAAATTAGATTTTAACAATTGAAACGTTATAATTATCTCTATGTCTTTTGATTTACCATATCTTTTTCCTTTTATATTTATTGATTAATAATATTTAAACTTTATGAAAAATGTTCCTAGAAACAATTTAGACACTATTGTAATACATCTTTATCTCTTTGGTTTTTTTAGTATGATATCTTTTATCTATTTTCACTGCAATCATGCTTTTGTATTTTTATTTATTTTATTGGGGGCAGGTGCAGCTGGCGCTGCTGTTGAGCCGTCACTGACGGTCTGGGGGAATGCGCTCCCAATCCAGCAGGTCTTACCACCACGGTCACGTGGGCGCTTGCTATGCTTGACCACCTCGTTTCGATCGCCGAGCCGGGGTTCCGGTCAGGCATGAACACGGTTCCGTATAGGTGCTATGGCAAGAGCTATGAGCGGTATACGGAGCGCCGGTGTTCTTCATATGTTATAGCCGTGCCCCCGTGCGTGCCTGTTCTTCCCAGCCCTGGTTGAGAACTTGTCGCCCATTGCTGGGGTCTTCACTAGTTATACTCTGAGACCTAGCGCAGGTAACATCTCATTCTGCAAGCGCCCCCTTTCACTCTGAATATCTCTAACATACGCTACTATTATTATCTCTCTTACCCTTTTCTAGCGTCAATCCCTCCTGCTCATATCCTTTCATGCATAGTATTGTGGGTTAAGGTGCTTTTCATCTACTTCCCCCCTAGTCTATTTGATGTGTGGACCTGTAGGATTACCCTGTTCGTTTTTCGCTGTTTGTACGTTCCTTATCCAGGGTTTTTATAGCGATGTTTTGGTGATTCTGTCGTGTGCGATTTTCTACTAACACCCGTACGAAGAATATTTCGCTAAGCGCAGGTCTTACGATGTTGGATATCAGGTTGTCCTGATGTCGCGCATATGTGAATTGTTGAATGATGTCTCTCTAATTGCATTTATCTGTTCAATGCTCCTTTTCTACTTACTCCAAGTTGGTCCGCACGTTTTTCTCTTTCCGCATGAGATCTGATTTGCAACTCTGCATCACTTGTGAACTTTTGTGTTGTATAGGCGTGCTTTCCGGGACTTAGGGGGCTCCTTGCGGATTCGAATCTTGGTCCTTTCATTTTATTTGAAGTTATCTTTACTTTTTTTAATTTATCCTCCGTTGTTTCGTTACTACCATACACGGTGAAGCGCTAATTTCATCACCACTTTTCACTATTCCGAGCACCATCATTTCCGGATTTATACTACAACAGTACCATATTTCCGGCACAACATTATTAGTTCCCACTGTCGTTCCGTTACGCTCACGGAAAGGACAGAGAGTCTACATCAAGATATTTTCACCACATCTTATAGTCACCCCAAGTATCTTAAAATGAAGTTTTCTCAAATTCGTTCGCAGCCCGACCTGGGACTTTTTATTTCTACATGTAGACTCCTACTCTGAAAACGATACATATAGCAATGTCCTTTAAATGGGTTAGTTTACGCGATGGGCCGCTCTCTCTAAGCTATCAGTTCTGCAACCCAAAGCTCAAGCCATCTTCTAACCCTTCTCAACAACGTACAAGTCATCTTATTAGAAGCCCATTATCCATCACAAAATCTCACGGCGAATTATGCTCGCCAGCGCATATTTTACCATCCACTAAATGATTTACCAACTCAGTCGAAGGGGATCTACACAACCTCGGCGATTTTGCTGAAATTTGGTACAACGTGCGGACTCTTATCGGCGCAGGGCCTTGTTAAACTAGTTCAATTCTGTAATTGACCGCCTTGGAAAAAGGGTGAAAACTGTAAAATAAGGGGCTGTTACCCTTTCCTCTCCGTTTTGCCCGTTCACCGTATAGGTGTCCCCTCGACTGGGTCTTTTGCTTTTACTCTTTCCCTTGTGCTCGAAACTGGTTCCCCGTTACCTTATAGGAGGGTAAGTTTTCAGATAGGCATCGTTGGCCTGAGTAAGTCTTTGCCAGTCCCATCAGCACCAAAACCCAAGACCTGTCTGTTACCTAGTAAGCCCTATATTGCTTGGGAGTTACTTCGTTTTACCGCTTGATTAGGATTTTCGGAGCTTGGGTGTACGGTTGAGTATGGTTGCGGACGTTGACACGCTTAAAGCCGCATTGATATGGTATGACTGCTACCTGTAATTTCCCAGAGTCTCTGGGAGTAACTTCATAAAAGATTGGTTCTGTGGCAATGGGCTAACGTTGGAGTAGAGTCCATGATACTAC'
p23
sS'sa'
p24
(lp25
I5386
aI5385
aI859
aI1498
aI5089
aI860
aI212
aI4445
aI5257
aI3447
aI3381
aI3006
aI5027
aI5359
aI4344
aI819
aI58
aI2321
aI3573
aI702
aI1499
aI5090
aI1675
aI807
aI861
aI213
aI4446
aI5258
aI3448
aI329
aI3382
aI2285
aI3007
aI5028
aI5284
aI4866
aI1354
aI129
aI3435
aI3513
aI5360
aI3395
aI5156
aI4345
aI820
aI59
aI137
aI2322
aI3574
aI778
aI703
aI1807
aI1500
aI5091
aI1676
aI4049
aI3723
aI663
aI3639
aI1763
aI808
aI862
aI214
aI1013
aI2426
aI4447
aI3674
aI5069
aI3494
aI3869
aI5259
aI2889
aI1891
aI3416
aI3449
aI330
aI3383
aI2286
aI73
aI3008
aI734
aI1408
aI2499
aI4976
aI3878
aI3161
aI3836
aI3266
aI3170
aI3271
aI3769
aI910
aI922
aI853
aI4451
aI5054
aI4961
aI1915
aI5029
aI5285
aI509
aI3911
aI4867
aI5015
aI4855
aI3669
aI384
aI1355
aI106
aI4499
aI3086
aI5329
aI5173
aI3961
aI1547
aI3678
aI130
aI3436
aI3514
aI5361
aI3396
aI2853
aI5157
aI3621
aI4346
aI821
aI60
aI995
aI138
aI2987
aI2221
aI5339
aI1982
aI2323
aI2649
aI5024
aI506
aI1396
aI5078
aI3053
aI405
aI3857
aI953
aI3575
aI1294
aI4313
aI779
aI30
aI3534
aI1796
aI3594
aI1238
aI704
aI656
aI1808
aI1501
aI5092
aI367
aI5234
aI1441
aI1339
aI3116
aI475
aI4124
aI2120
aI3915
aI1696
aI1677
aI5378
aI4050
aI5316
aI4361
aI200
aI5252
aI3724
aI4404
aI2307
aI2592
aI2144
aI1909
aI664
aI3640
aI1764
aI1622
aI809
aI2513
aI863
aI2808
aI196
aI1095
aI1399
aI5081
aI1755
aI215
aI3402
aI1014
aI5199
aI5144
aI4299
aI1966
aI2838
aI2427
aI804
aI4448
aI381
aI3675
aI2141
aI1619
aI5114
aI2023
aI5070
aI3495
aI3870
aI4367
aI5260
aI2890
aI1892
aI4143
aI3417
aI3450
aI331
aI3384
aI1460
aI480
aI2287
aI2032
aI4474
aI3590
aI5246
aI4112
aI74
aI1363
aI3009
aI735
aI2355
aI1409
aI2360
aI2314
aI916
aI2500
aI4977
aI3633
aI443
aI167
aI4133
aI3879
aI1589
aI4391
aI5207
aI3162
aI2442
aI5096
aI5117
aI3837
aI3267
aI267
aI2763
aI3171
aI3539
aI834
aI3272
aI4415
aI3770
aI4460
aI1258
aI1993
aI911
aI923
aI684
aI4691
aI3099
aI4211
aI2099
aI4335
aI854
aI3183
aI4452
aI5055
aI4962
aI3030
aI1916
aI3689
aI5030
aI3251
aI2916
aI112
aI237
aI25
aI4256
aI396
aI5286
aI1249
aI3221
aI2026
aI510
aI1351
aI4310
aI3912
aI2805
aI3488
aI4868
aI5016
aI3056
aI4856
aI374
aI2209
aI1387
aI246
aI1006
aI3377
aI3670
aI1456
aI3410
aI5128
aI3731
aI2877
aI2601
aI2268
aI385
aI2390
aI5194
aI4625
aI4089
aI1356
aI408
aI107
aI4841
aI4500
aI1723
aI3087
aI2245
aI5330
aI5174
aI3962
aI3581
aI5167
aI3662
aI1548
aI3679
aI131
aI3437
aI3515
aI5134
aI1447
aI4697
aI5362
aI3397
aI4535
aI1270
aI2854
aI4540
aI4278
aI5158
aI2541
aI3622
aI4096
aI3314
aI4631
aI5073
aI4261
aI4754
aI713
aI2730
aI4184
aI2550
aI4347
aI4005
aI3782
aI846
aI2227
aI4286
aI3107
aI102
aI4436
aI822
aI81
aI61
aI996
aI2421
aI139
aI962
aI4269
aI3939
aI744
aI2988
aI2222
aI693
aI5340
aI1983
aI3860
aI1603
aI3899
aI956
aI2324
aI4820
aI2330
aI2650
aI5025
aI3511
aI507
aI5327
aI5171
aI1694
aI1397
aI5079
aI3054
aI3408
aI406
aI5165
aI4276
aI4284
aI3858
aI954
aI3576
aI3929
aI2493
aI4911
aI4705
aI1295
aI4314
aI4581
aI780
aI4793
aI31
aI3535
aI2489
aI1797
aI3595
aI4748
aI4546
aI4802
aI4887
aI1239
aI2505
aI1564
aI2583
aI1574
aI705
aI657
aI1809
aI1502
aI322
aI290
aI1196
aI1760
aI3666
aI1616
aI2352
aI5204
aI5093
aI1348
aI3578
aI3659
aI1561
aI4323
aI368
aI2254
aI5235
aI3498
aI2174
aI4982
aI1646
aI2162
aI1313
aI1087
aI4440
aI2644
aI1442
aI4815
aI3931
aI2697
aI591
aI1340
aI3117
aI1949
aI3996
aI476
aI1432
aI3047
aI1933
aI4602
aI4125
aI4326
aI2121
aI2844
aI528
aI425
aI1427
aI2757
aI3916
aI1697
aI2233
aI2495
aI1801
aI145
aI1678
aI5379
aI4051
aI5317
aI2480
aI1904
aI2090
aI758
aI5043
aI1040
aI183
aI4341
aI3491
aI99
aI5324
aI4599
aI5217
aI1552
aI4362
aI500
aI1333
aI201
aI5253
aI4837
aI798
aI19
aI3725
aI4913
aI4376
aI3481
aI4405
aI2308
aI4707
aI2593
aI3363
aI2796
aI5225
aI1133
aI5220
aI769
aI2145
aI220
aI1910
aI1688
aI4011
aI572
aI4920
aI698
aI5183
aI4203
aI665
aI3641
aI3873
aI2535
aI4370
aI2782
aI1765
aI1623
aI826
aI810
aI4871
aI5019
aI2514
aI258
aI4224
aI864
aI4930
aI786
aI3188
aI4589
aI1226
aI2809
aI415
aI5301
aI5086
aI3392
aI1888
aI907
aI2850
aI197
aI371
aI2694
aI1096
aI85
aI1297
aI4316
aI344
aI4493
aI1846
aI2775
aI1400
aI4644
aI3443
aI3629
aI5082
aI2463
aI1099
aI1276
aI1118
aI3683
aI2257
aI3278
aI1184
aI4583
aI1855
aI4079
aI401
aI1756
aI1612
aI524
aI794
aI216
aI782
aI4250
aI1531
aI3791
aI3764
aI2706
aI1882
aI4713
aI1510
aI3548
aI118
aI88
aI3403
aI1015
aI1300
aI271
aI1189
aI5291
aI3059
aI2767
aI1288
aI2912
aI5200
aI3708
aI1927
aI2151
aI3476
aI1631
aI5107
aI4795
aI5145
aI2275
aI1555
aI3203
aI2454
aI3175
aI985
aI4300
aI1967
aI3851
aI3241
aI1707
aI2839
aI4782
aI33
aI4026
aI175
aI579
aI2403
aI1204
aI2428
aI805
aI135
aI3414
aI4449
aI382
aI3676
aI4359
aI5250
aI2142
aI1620
aI802
aI4365
aI165
aI5115
aI3537
aI235
aI23
aI4254
aI2024
aI3486
aI3375
aI5126
aI3729
aI5132
aI5071
aI2491
aI1194
aI4321
aI3496
aI423
aI1799
aI3871
aI4368
aI3441
aI1529
aI2401
aI4357
aI5261
aI5263
aI2891
aI1893
aI306
aI4144
aI3418
aI3451
aI332
aI3385
aI4609
aI4508
aI279
aI5035
aI5238
aI5265
aI1461
aI481
aI3429
aI3519
aI1127
aI4116
aI2575
aI3609
aI2893
aI1895
aI308
aI4146
aI5270
aI2288
aI3420
aI2033
aI4475
aI3453
aI1070
aI3720
aI3591
aI5247
aI4113
aI75
aI3597
aI1838
aI1364
aI2908
aI5296
aI5138
aI3010
aI736
aI4968
aI893
aI2356
aI1410
aI2361
aI2315
aI3735
aI917
aI4032
aI1025
aI723
aI3324
aI334
aI1640
aI4808
aI4524
aI5065
aI4750
aI2501
aI4978
aI3634
aI444
aI159
aI168
aI4134
aI3880
aI1590
aI4392
aI5208
aI3163
aI2443
aI5097
aI5118
aI3838
aI1451
aI3309
aI3387
aI2468
aI4859
aI1535
aI775
aI3268
aI3908
aI2117
aI78
aI4917
aI268
aI2764
aI3172
aI232
aI5062
aI3540
aI835
aI2382
aI990
aI3273
aI4416
aI3771
aI4461
aI1259
aI1994
aI3922
aI912
aI3064
aI1773
aI3126
aI4485
aI924
aI685
aI2998
aI4611
aI1436
aI4692
aI4548
aI3100
aI4041
aI4212
aI3195
aI5276
aI2100
aI453
aI555
aI4062
aI4510
aI3970
aI4167
aI4336
aI968
aI2344
aI2042
aI4683
aI1376
aI855
aI1671
aI377
aI3184
aI903
aI4804
aI3501
aI4453
aI5056
aI4963
aI3031
aI2921
aI1917
aI945
aI2216
aI3690
aI2300
aI2881
aI3702
aI2605
aI3600
aI2369
aI503
aI1901
aI4431
aI4889
aI4740
aI3651
aI4722
aI392
aI286
aI5031
aI2212
aI352
aI2186
aI53
aI3468
aI3543
aI3252
aI2677
aI2917
aI838
aI3695
aI5187
aI2204
aI113
aI1241
aI238
aI2048
aI2294
aI4467
aI2177
aI4851
aI26
aI4257
aI397
aI5287
aI4985
aI3712
aI1250
aI4176
aI4903
aI3222
aI2195
aI2027
aI2385
aI615
aI2529
aI511
aI4236
aI1
aI1778
aI4380
aI3137
aI5357
aI2283
aI1352
aI1805
aI71
aI3834
aI3264
aI993
aI1394
aI3051
aI4311
aI4122
aI3913
aI2305
aI2806
aI4110
aI2440
aI4209
aI3219
aI4623
aI4182
aI4434
aI2419
aI2581
aI1346
aI589
aI1931
aI2755
aI3489
aI4869
aI5017
aI3276
aI1610
aI3057
aI3849
aI4319
aI4857
aI375
aI2210
aI2527
aI1388
aI281
aI3505
aI247
aI5037
aI4989
aI4191
aI4305
aI1007
aI4419
aI5240
aI1307
aI1937
aI2626
aI3753
aI4656
aI3774
aI41
aI2519
aI3816
aI3378
aI3671
aI3531
aI193
aI1457
aI4130
aI2087
aI3411
aI5129
aI3717
aI3732
aI2878
aI2602
aI4719
aI2269
aI386
aI677
aI2391
aI5374
aI5195
aI4626
aI4090
aI648
aI1357
aI409
aI149
aI2722
aI108
aI4037
aI2240
aI4898
aI4842
aI4501
aI1108
aI7
aI2507
aI1220
aI2054
aI4571
aI1390
aI1566
aI1493
aI1724
aI347
aI3088
aI2246
aI5331
aI1734
aI2585
aI5175
aI4243
aI65
aI3288
aI3963
aI1049
aI3582
aI5153
aI4496
aI1255
aI1990
aI4532
aI4266
aI5168
aI3663
aI2171
aI1037
aI1549
aI16
aI1685
aI3680
aI2272
aI132
aI3438
aI3516
aI5267
aI5135
aI1448
aI229
aI3123
aI4428
aI389
aI283
aI50
aI4464
aI4233
aI4620
aI1463
aI2740
aI1649
aI1742
aI2713
aI2165
aI4698
aI5363
aI483
aI3431
aI3398
aI4536
aI3507
aI1636
aI4163
aI1271
aI4892
aI2638
aI1030
aI2855
aI1316
aI3953
aI1420
aI4541
aI3614
aI2060
aI5345
aI1714
aI4787
aI4773
aI4956
aI1598
aI4279
aI5159
aI1466
aI4554
aI3795
aI2542
aI3075
aI358
aI3623
aI3339
aI3521
aI249
aI4097
aI3315
aI4632
aI3569
aI5074
aI1751
aI680
aI5039
aI1129
aI4118
aI2577
aI4262
aI1961
aI1841
aI4755
aI714
aI3155
aI3741
aI4991
aI1579
aI3068
aI4743
aI567
aI301
aI3825
aI3885
aI2731
aI1232
aI4185
aI2743
aI2551
aI1262
aI4881
aI3980
aI4667
aI3356
aI4560
aI1475
aI2826
aI4348
aI842
aI941
aI4193
aI4006
aI1211
aI3783
aI847
aI2981
aI1000
aI2228
aI4287
aI3036
aI5007
aI1652
aI642
aI3108
aI4197
aI1745
aI2815
aI1849
aI2716
aI2394
aI2072
aI2930
aI3945
aI1997
aI2886
aI103
aI3083
aI1336
aI440
aI4457
aI1246
aI4307
aI710
aI1084
aI4437
aI3993
aI823
aI82
aI341
aI1628
aI4606
aI2752
aI62
aI3285
aI2168
aI3611
aI3566
aI1576
aI997
aI639
aI707
aI2895
aI4017
aI659
aI1009
aI2422
aI3095
aI3026
aI2264
aI4701
aI2571
aI4520
aI2113
aI449
aI1897
aI3464
aI2109
aI140
aI2155
aI4421
aI2015
aI310
aI204
aI4148
aI1811
aI5242
aI3925
aI1570
aI1309
aI2778
aI1180
aI5272
aI4058
aI2290
aI3830
aI963
aI2566
aI3422
aI1161
aI518
aI2035
aI620
aI4477
aI3455
aI1939
aI2942
aI632
aI2954
aI2628
aI4270
aI3755
aI5366
aI3890
aI4658
aI1072
aI2864
aI3940
aI745
aI2989
aI471
aI2223
aI694
aI5341
aI2926
aI1090
aI4767
aI3301
aI486
aI3776
aI4073
aI1984
aI2409
aI43
aI3861
aI1657
aI1382
aI3370
aI2135
aI1604
aI1504
aI1665
aI3231
aI3900
aI2898
aI1367
aI324
aI1403
aI957
aI2325
aI3654
aI4647
aI492
aI4020
aI2521
aI4821
aI292
aI1198
aI3818
aI2331
aI4725
aI2651
aI5384
aI1497
aI211
aI4444
aI5256
aI3446
aI3380
aI3005
aI5026
aI818
aI4865
aI3434
aI3512
aI3722
aI662
aI3638
aI1762
aI1012
aI2425
aI3673
aI3768
aI508
aI3668
aI5328
aI5172
aI3960
aI1546
aI3620
aI5338
aI952
aI3533
aI1795
aI3593
aI655
aI366
aI5233
aI1695
aI5377
aI5315
aI2591
aI2512
aI195
aI1094
aI1398
aI5080
aI3401
aI5198
aI5143
aI4298
aI1965
aI2140
aI1618
aI5113
aI1459
aI4473
aI3589
aI2354
aI915
aI3632
aI4132
aI1588
aI4390
aI5206
aI5095
aI266
aI2762
aI4690
aI3098
aI3029
aI3688
aI3250
aI395
aI1350
aI2804
aI3055
aI3409
aI2267
aI4088
aI407
aI4840
aI2244
aI3580
aI5166
aI3661
aI4539
aI4277
aI4095
aI4630
aI4285
aI3938
aI3859
aI955
aI3510
aI5164
aI4275
aI4704
aI1563
aI289
aI3577
aI2161
aI3930
aI4325
aI2494
aI2479
aI2089
aI1332
aI4912
aI3480
aI4706
aI4010
aI5182
aI257
aI4929
aI4588
aI1225
aI5085
aI370
aI1296
aI4315
aI4492
aI1845
aI1275
aI2256
aI4582
aI781
aI3790
aI2911
aI4794
aI3202
aI2453
aI4781
aI32
aI3413
aI5249
aI801
aI3536
aI22
aI3485
aI5125
aI3728
aI5131
aI2490
aI422
aI1798
aI2400
aI5034
aI5237
aI4115
aI2574
aI1069
aI3719
aI3596
aI2907
aI892
aI3734
aI1639
aI4523
aI4749
aI158
aI2467
aI774
aI2116
aI77
aI4916
aI3921
aI4547
aI3194
aI452
aI4166
aI967
aI1375
aI4803
aI3500
aI2215
aI2880
aI2604
aI3599
aI1900
aI4888
aI3650
aI4721
aI2185
aI3467
aI2203
aI1240
aI2047
aI2176
aI4850
aI4984
aI4902
aI2194
aI1777
aI4379
aI4109
aI4208
aI2418
aI1609
aI3752
aI192
aI4129
aI3716
aI676
aI647
aI4897
aI2506
aI1219
aI1565
aI1492
aI1733
aI2584
aI1048
aI1254
aI1036
aI15
aI2271
aI388
aI2739
aI1648
aI2164
aI1635
aI1315
aI3952
aI1713
aI4772
aI4553
aI679
aI1840
aI3067
aI300
aI3824
aI2825
aI2980
aI2393
aI1575
aI706
aI658
aI3094
aI3025
aI2570
aI2112
aI448
aI3463
aI2108
aI1810
aI2565
aI1160
aI631
aI1089
aI4766
aI3300
aI4072
aI1503
aI1664
aI1366
aI323
aI291
aI1197
aI4443
aI1761
aI3667
aI3959
aI1545
aI3619
aI5376
aI5197
aI4297
aI1617
aI5112
aI3588
aI2353
aI5205
aI5094
aI1349
aI3579
aI3660
aI4094
aI4629
aI3937
aI1562
aI2160
aI4324
aI5181
aI369
aI4491
aI1274
aI2255
aI2910
aI3484
aI421
aI5236
aI2906
aI2466
aI3499
aI2184
aI2175
aI4849
aI4983
aI1776
aI4108
aI4207
aI2417
aI191
aI4896
aI1491
aI1047
aI14
aI2738
aI1647
aI2163
aI1314
aI4771
aI2979
aI3093
aI2107
aI1159
aI1088
aI4442
aI4296
aI5111
aI4093
aI4628
aI3936
aI4895
aI1046
aI2106
aI4441
aI4295
aI4092
aI4294
aI4330
aI2790
aI3132
aI979
aI4331
aI2702
aI1284
aI2791
aI650
aI2645
aI1359
aI1443
aI4816
aI3133
aI1215
aI3932
aI2698
aI592
aI4408
aI1341
aI3118
aI879
aI1950
aI980
aI3997
aI477
aI2311
aI4332
aI2251
aI2641
aI5298
aI2691
aI2703
aI4710
aI1285
aI3426
aI3606
aI1022
aI1433
aI4680
aI3048
aI3846
aI1934
aI355
aI4603
aI5140
aI4387
aI889
aI4126
aI1033
aI4846
aI4327
aI3129
aI1972
aI1876
aI3012
aI2122
aI2858
aI1975
aI1819
aI2596
aI2845
aI529
aI738
aI2338
aI3258
aI4970
aI1516
aI426
aI1319
aI3366
aI2799
aI3018
aI728
aI1102
aI1428
aI2792
aI411
aI651
aI2758
aI3917
aI627
aI1698
aI4759
aI1149
aI1414
aI5228
aI2189
aI2004
aI895
aI1482
aI1136
aI2234
aI3210
aI462
aI2496
aI2646
aI3113
aI1360
aI1444
aI4817
aI4799
aI1879
aI3134
aI1802
aI146
aI2710
aI1216
aI3956
aI4488
aI3933
aI2699
aI3015
aI1522
aI593
aI435
aI1279
aI3345
aI4409
aI1679
aI1423
aI1525
aI1834
aI3305
aI4736
aI1342
aI3119
aI5380
aI4052
aI602
aI2080
aI880
aI669
aI5318
aI608
aI4949
aI2659
aI2481
aI1951
aI1905
aI981
aI4877
aI2786
aI1121
aI2065
aI3998
aI2125
aI2091
aI151
aI759
aI1173
aI5044
aI1059
aI1702
aI1041
aI184
aI2724
aI4342
aI56
aI3492
aI478
aI2358
aI2312
aI4333
aI110
aI100
aI5325
aI4544
aI2252
aI2642
aI1947
aI4600
aI143
aI181
aI5223
aI5218
aI5299
aI1886
aI2692
aI1116
aI2704
aI4711
aI1286
aI3474
aI1553
aI4363
aI163
aI3427
aI1125
aI3607
aI1023
aI721
aI1434
aI4039
aI4681
aI901
aI501
aI5355
aI3049
aI4180
aI3847
aI1935
aI4426
aI356
aI1334
aI4604
aI2262
aI202
aI490
aI5254
aI5313
aI5141
aI4388
aI4688
aI3686
aI4838
aI2242
aI799
aI20
aI3726
aI890
aI156
aI772
aI4914
aI4900
aI4377
aI4127
aI1034
aI1543
aI3617
aI2158
aI3482
aI4847
aI2415
aI189
aI2736
aI2977
aI4328
aI3130
aI4406
aI877
aI2309
aI4708
aI1020
aI4844
aI1973
aI2594
aI3364
aI2797
aI1412
aI5226
aI1134
aI1877
aI3013
aI2063
aI2123
aI5221
aI4424
aI2260
aI770
aI5348
aI2859
aI2363
aI2146
aI4503
aI1976
aI3554
aI221
aI751
aI1820
aI1911
aI2597
aI4907
aI2846
aI3760
aI5103
aI873
aI927
aI1717
aI1143
aI530
aI2872
aI739
aI688
aI1689
aI2339
aI3259
aI4012
aI545
aI573
aI1110
aI4971
aI9
aI1517
aI5350
aI1862
aI596
aI2670
aI427
aI1320
aI4921
aI699
aI126
aI831
aI4790
aI5184
aI38
aI2861
aI3367
aI2476
aI4204
aI976
aI666
aI3471
aI5310
aI3642
aI5149
aI2800
aI4832
aI2317
aI3874
aI2365
aI3737
aI2950
aI3001
aI4776
aI3019
aI729
aI2536
aI4371
aI1103
aI2686
aI919
aI1429
aI2793
aI412
aI2148
aI4505
aI5371
aI4034
aI4160
aI1027
aI4664
aI2069
aI815
aI652
aI2509
aI263
aI2759
aI1222
aI3787
aI3918
aI628
aI886
aI725
aI2783
aI1699
aI718
aI542
aI4829
aI1165
aI1766
aI2018
aI3561
aI1078
aI4760
aI1150
aI931
aI1978
aI4640
aI2279
aI4652
aI4229
aI1624
aI3281
aI827
aI811
aI536
aI3326
aI1415
aI336
aI4872
aI1168
aI764
aI1789
aI5020
aI1642
aI1769
aI2515
aI2056
aI1471
aI5229
aI2190
aI259
aI4225
aI865
aI2005
aI4931
aI787
aI3986
aI4810
aI550
aI4171
aI3189
aI896
aI3556
aI1483
aI223
aI1137
aI4590
aI753
aI2235
aI562
aI1227
aI2810
aI416
aI3211
aI1822
aI4526
aI4614
aI1870
aI463
aI5302
aI4573
aI5087
aI3393
aI5067
aI1889
aI2497
aI3159
aI908
aI851
aI5052
aI4959
aI1913
aI5013
aI2851
aI2985
aI2647
aI1439
aI3114
aI198
aI2836
aI2021
aI1361
aI372
aI1004
aI2599
aI1721
aI1445
aI4695
aI4752
aI3780
aI3105
aI1601
aI3897
aI4818
aI4282
aI4909
aI4800
aI2503
aI1559
aI4980
aI2695
aI3045
aI2848
aI1097
aI4077
aI522
aI3762
aI1880
aI3546
aI86
aI1298
aI1187
aI5105
aI3906
aI5060
aI3135
aI1803
aI1392
aI4317
aI4717
aI147
aI345
aI4494
aI1988
aI1740
aI2711
aI3153
aI5005
aI1847
aI438
aI3564
aI4518
aI1568
aI2776
aI1178
aI4056
aI2940
aI1401
aI4645
aI1495
aI3444
aI3636
aI5336
aI3630
aI4086
aI5162
aI4586
aI5083
aI2451
aI3750
aI674
aI1217
aI4551
aI446
aI3957
aI4489
aI2904
aI2464
aI1157
aI3934
aI4292
aI2700
aI1282
aI1514
aI3016
aI1100
aI1147
aI1277
aI1523
aI2078
aI606
aI1119
aI161
aI3684
aI1541
aI2413
aI875
aI2258
aI3552
aI594
aI540
aI929
aI3279
aI534
aI1469
aI1719
aI3103
aI3895
aI1185
aI436
aI4584
aI1280
aI1145
aI532
aI3346
aI1726
aI4044
aI4410
aI170
aI1680
aI3745
aI1856
aI2964
aI4136
aI313
aI4080
aI402
aI4401
aI2874
aI4002
aI741
aI690
aI1691
aI1757
aI1613
aI525
aI1424
aI4596
aI497
aI795
aI217
aI4221
aI783
aI4251
aI1526
aI1835
aI3306
aI1532
aI2341
aI2039
aI3699
aI4737
aI349
aI3261
aI2437
aI3216
aI1343
aI2623
aI3120
aI47
aI3792
aI3336
aI3882
aI4557
aI4014
aI5381
aI3765
aI1585
aI3297
aI1488
aI3090
aI2248
aI4677
aI3255
aI624
aI3207
aI459
aI2707
aI1883
aI547
aI5049
aI4714
aI4053
aI5333
aI1511
aI603
aI3549
aI2961
aI4398
aI3294
aI119
aI3348
aI2376
aI2081
aI1592
aI4215
aI3798
aI89
aI3865
aI3404
aI575
aI4481
aI3198
aI3459
aI1943
aI1112
aI1016
aI869
aI122
aI2946
aI1736
aI4394
aI5279
aI1728
aI5210
aI3165
aI2545
aI3351
aI3078
aI1064
aI3645
aI881
aI1784
aI2009
aI2129
aI3147
aI3330
aI2970
aI3804
aI1301
aI2445
aI4935
aI272
aI1190
aI5292
aI3060
aI207
aI2587
aI5177
aI5099
aI670
aI4151
aI5319
aI1814
aI2768
aI1289
aI2458
aI4245
aI361
aI5120
aI609
aI4950
aI3840
aI2614
aI4995
aI2660
aI2482
aI1952
aI4046
aI4973
aI1906
aI4412
aI2913
aI243
aI1453
aI5191
aI3311
aI5201
aI3389
aI3626
aI791
aI982
aI172
aI2379
aI3709
aI1928
aI3528
aI2084
aI1682
aI1595
aI4878
aI1081
aI3990
aI636
aI2152
aI3477
aI1632
aI2562
aI4763
aI1661
aI4105
aI11
aI5108
aI2103
aI2787
aI4796
aI1519
aI3342
aI1056
aI1122
aI5352
aI2473
aI973
aI5146
aI2683
aI2066
aI2276
aI1556
aI3747
aI3999
aI4218
aI3204
aI456
aI2958
aI2126
aI3801
aI2455
aI2470
aI2680
aI2092
aI3176
aI2095
aI3179
aI986
aI67
aI4301
aI3227
aI4861
aI1968
aI152
aI1858
aI760
aI558
aI3041
aI1174
aI4673
aI5045
aI3290
aI1060
aI2966
aI3524
aI3852
aI4138
aI3965
aI1327
aI252
aI4100
aI1051
aI3318
aI3242
aI1708
aI4065
aI1864
aI315
aI92
aI2840
aI1703
aI4783
aI3584
aI1042
aI598
aI185
aI34
aI4082
aI1153
aI1537
aI2725
aI1922
aI4027
aI2672
aI176
aI4635
aI4513
aI429
aI934
aI580
aI1827
aI2404
aI4155
aI1322
aI2632
aI1205
aI4923
aI3973
aI2429
aI4343
aI57
aI3572
aI701
aI806
aI5283
aI128
aI5155
aI136
aI777
aI3493
aI3868
aI3415
aI3270
aI4450
aI3910
aI383
aI4498
aI3677
aI1981
aI5077
aI404
aI3856
aI1237
aI2119
aI4360
aI5251
aI4403
aI2143
aI1621
aI1754
aI803
aI4366
aI4142
aI479
aI5245
aI2359
aI2313
aI166
aI5116
aI3538
aI833
aI1257
aI1992
aI683
aI2098
aI4334
aI3182
aI111
aI236
aI24
aI4255
aI2025
aI3487
aI2208
aI1386
aI3376
aI5127
aI3730
aI2876
aI5133
aI4534
aI5072
aI2729
aI4004
aI101
aI80
aI4268
aI743
aI692
aI5326
aI5170
aI1693
aI3407
aI3928
aI2492
aI4580
aI4792
aI4545
aI1573
aI321
aI1195
aI1759
aI3665
aI1615
aI2351
aI4322
aI2253
aI3497
aI2173
aI1312
aI2643
aI4814
aI1948
aI4601
aI527
aI424
aI1426
aI2232
aI1800
aI144
aI5042
aI1039
aI182
aI4340
aI5323
aI4598
aI1551
aI499
aI797
aI18
aI3362
aI5224
aI1132
aI5219
aI219
aI1687
aI4919
aI4202
aI3872
aI2534
aI4369
aI2781
aI4223
aI785
aI5300
aI1887
aI2693
aI2774
aI4643
aI3442
aI1117
aI3682
aI1183
aI1530
aI2705
aI4712
aI1509
aI117
aI270
aI2766
aI1287
aI3707
aI1926
aI3475
aI2274
aI1554
aI3174
aI3240
aI4025
aI578
aI2402
aI134
aI4358
aI4364
aI164
aI234
aI4253
aI3374
aI3440
aI1528
aI5262
aI5264
aI3428
aI3518
aI1126
aI3608
aI2892
aI1894
aI307
aI4145
aI5269
aI3419
aI3452
aI1837
aI5137
aI4967
aI4031
aI1024
aI722
aI3323
aI333
aI5064
aI1450
aI3308
aI3386
aI1534
aI231
aI989
aI3125
aI4484
aI2997
aI4610
aI1435
aI4040
aI5275
aI554
aI4061
aI4509
aI3969
aI2343
aI2041
aI4682
aI1670
aI902
aI2920
aI2299
aI3701
aI502
aI4430
aI4739
aI391
aI285
aI351
aI52
aI3542
aI2676
aI837
aI5186
aI2293
aI4466
aI4175
aI2384
aI614
aI4235
aI0
aI5356
aI2282
aI70
aI3833
aI3263
aI992
aI3050
aI4121
aI2439
aI3218
aI4622
aI4181
aI2580
aI1345
aI588
aI3275
aI3848
aI2526
aI280
aI5036
aI4190
aI4304
aI4418
aI5239
aI1936
aI2625
aI4655
aI3773
aI40
aI3815
aI5152
aI4531
aI4265
aI5266
aI228
aI3122
aI4427
aI49
aI4463
aI4232
aI1462
aI482
aI3430
aI2637
aI1419
aI4955
aI1465
aI3794
aI3074
aI357
aI3338
aI3520
aI1750
aI1128
aI4117
aI2576
aI3884
aI2742
aI1261
aI4559
aI841
aI3035
aI1651
aI1744
aI2715
aI1996
aI1335
aI1245
aI340
aI1627
aI4605
aI3284
aI2167
aI3610
aI2894
aI4016
aI2263
aI4700
aI1896
aI2014
aI309
aI203
aI4147
aI3924
aI5271
aI2289
aI3421
aI517
aI2034
aI4476
aI3454
aI5365
aI1071
aI2863
aI470
aI2925
aI485
aI3369
aI2134
aI3230
aI491
aI5383
aI5255
aI4864
aI3433
aI3721
aI3767
aI3592
aI5314
aI3400
aI5142
aI1964
aI2139
aI914
aI1587
aI4389
aI4689
aI3687
aI3249
aI2803
aI4839
aI2243
aI4538
aI3509
aI4274
aI2478
aI1331
aI256
aI1844
aI3201
aI4780
aI5248
aI800
aI21
aI3727
aI4114
aI891
aI1638
aI157
aI773
aI76
aI4915
aI3193
aI4165
aI966
aI3598
aI2202
aI4901
aI4378
aI1608
aI4128
aI1732
aI1035
aI1839
aI3066
aI3024
aI2569
aI3462
aI3299
aI4071
aI1365
aI1544
aI3618
aI2159
aI1273
aI2909
aI3483
aI4848
aI1775
aI4206
aI2416
aI190
aI1490
aI2737
aI2978
aI3092
aI4894
aI4329
aI3131
aI978
aI4407
aI878
aI2310
aI2250
aI2640
aI5297
aI4709
aI3425
aI1021
aI4679
aI3845
aI5139
aI4386
aI1032
aI4845
aI3128
aI1971
aI3011
aI2857
aI1974
aI1818
aI2595
aI737
aI2337
aI3257
aI4969
aI1318
aI3365
aI2798
aI626
aI4758
aI1413
aI5227
aI894
aI1135
aI3209
aI461
aI1878
aI2709
aI3955
aI4487
aI3014
aI434
aI1422
aI4735
aI668
aI4948
aI2658
aI4876
aI2064
aI2124
aI1172
aI2357
aI4543
aI1946
aI180
aI5222
aI1885
aI1115
aI3473
aI900
aI4425
aI2261
aI5312
aI155
aI771
aI3616
aI2976
aI1019
aI1411
aI2062
aI5347
aI2362
aI3759
aI872
aI926
aI1716
aI1142
aI687
aI5349
aI1861
aI125
aI830
aI4789
aI2860
aI5309
aI2316
aI2364
aI3736
aI2949
aI3000
aI4775
aI918
aI2147
aI4504
aI5370
aI4033
aI1026
aI814
aI724
aI717
aI1164
aI3560
aI1977
aI4639
aI3325
aI335
aI763
aI1641
aI4809
aI549
aI4170
aI3555
aI222
aI752
aI561
aI1821
aI4525
aI4613
aI5066
aI3158
aI5051
aI4958
aI1912
aI5012
aI1438
aI2598
aI4694
aI4751
aI1600
aI4281
aI4908
aI2502
aI4979
aI3044
aI2847
aI521
aI3761
aI5104
aI4716
aI1739
aI3152
aI4517
aI1177
aI4055
aI2939
aI3635
aI5335
aI5161
aI4550
aI445
aI4291
aI1513
aI605
aI160
aI874
aI3551
aI539
aI928
aI1468
aI1718
aI3102
aI3894
aI1144
aI531
aI4043
aI169
aI3744
aI2963
aI4135
aI4400
aI2873
aI740
aI689
aI1690
aI4595
aI2340
aI2038
aI3698
aI3260
aI2622
aI3335
aI3881
aI4556
aI4013
aI3296
aI1487
aI4676
aI623
aI546
aI5048
aI4397
aI3293
aI1591
aI4214
aI3797
aI574
aI4480
aI3197
aI3458
aI1942
aI1111
aI121
aI2945
aI4393
aI5278
aI5209
aI3164
aI2544
aI3350
aI3077
aI1063
aI3644
aI3329
aI2969
aI2444
aI5098
aI360
aI5119
aI3839
aI4994
aI4972
aI242
aI1452
aI5190
aI3310
aI3388
aI3625
aI2378
aI3527
aI2083
aI1594
aI635
aI4104
aI10
aI2102
aI1518
aI3341
aI1055
aI5351
aI972
aI4217
aI455
aI2957
aI3800
aI2469
aI3226
aI4860
aI557
aI3040
aI3523
aI251
aI4099
aI3317
aI4064
aI1863
aI91
aI597
aI1536
aI1921
aI2671
aI4634
aI4512
aI428
aI1321
aI2631
aI4922
aI3972
aI3571
aI700
aI5282
aI127
aI776
aI3867
aI3269
aI3909
aI5076
aI3855
aI2118
aI1753
aI4141
aI832
aI682
aI2207
aI79
aI3406
aI4791
aI5041
aI4339
aI1131
aI4918
aI1508
aI116
aI269
aI2765
aI3173
aI3239
aI577
aI233
aI3322
aI5063
aI4483
aI2996
aI3968
aI1669
aI3541
aI836
aI5185
aI2383
aI991
aI4120
aI2579
aI587
aI3274
aI4417
aI3772
aI39
aI5151
aI4264
aI227
aI4462
aI1418
aI1260
aI1995
aI1244
aI339
aI3923
aI516
aI2862
aI469
aI3368
aI1963
aI913
aI3248
aI2802
aI4273
aI2477
aI1330
aI255
aI1843
aI3200
aI1731
aI3065
aI3023
aI3461
aI4070
aI1774
aI4205
aI977
aI3127
aI4757
aI4486
aI433
aI667
aI4947
aI4875
aI1171
aI1945
aI1114
aI3472
aI5311
aI2975
aI1018
aI3758
aI871
aI925
aI1141
aI686
aI124
aI5308
aI2948
aI2999
aI5369
aI716
aI4169
aI4612
aI3157
aI5011
aI1437
aI4693
aI1738
aI4549
aI3101
aI3893
aI4042
aI3743
aI4594
aI4396
aI4213
aI3196
aI5277
aI3643
aI4993
aI241
aI4103
aI2101
aI1054
aI971
aI454
aI556
aI4063
aI4511
aI3971
aI5281
aI4338
aI3321
aI586
aI5150
aI2801
aI1730
aI4168
aI970
aI4337
aI969
aI2345
aI4833
aI2043
aI4684
aI1581
aI3070
aI5212
aI1377
aI2346
aI856
aI2318
aI1672
aI3875
aI3167
aI378
aI2547
aI4745
aI4834
aI569
aI3185
aI904
aI303
aI4805
aI2366
aI3502
aI2051
aI3738
aI3353
aI938
aI3080
aI4454
aI3827
aI2951
aI3887
aI3002
aI949
aI1066
aI3647
aI2044
aI4685
aI2733
aI4661
aI883
aI4826
aI1075
aI1786
aI2833
aI5057
aI1582
aI1234
aI4964
aI4187
aI3071
aI3032
aI2011
aI2922
aI2131
aI4777
aI3149
aI2936
aI2619
aI3332
aI1918
aI3245
aI3020
aI2972
aI946
aI2745
aI2553
aI3806
aI1264
aI730
aI2217
aI2537
aI4883
aI5213
aI4372
aI3691
aI2301
aI1303
aI1104
aI2882
aI2748
aI1378
aI2687
aI2666
aI3982
aI2447
aI4669
aI2347
aI3358
aI3703
aI3811
aI3235
aI4937
aI4562
aI4941
aI2606
aI274
aI4566
aI2820
aI3601
aI1477
aI2867
aI5000
aI2828
aI2370
aI2556
aI4350
aI857
aI2319
aI1673
aI3876
aI3168
aI920
aI504
aI379
aI2548
aI844
aI4746
aI1430
aI1902
aI4835
aI2794
aI767
aI570
aI3186
aI413
aI905
aI2149
aI1192
aI304
aI4506
aI5294
aI4806
aI3062
aI943
aI2367
aI4432
aI3503
aI5372
aI4035
aI2052
aI4241
aI4161
aI4890
aI1028
aI1959
aI3739
aI4741
aI4665
aI3354
aI939
aI4195
aI2070
aI3943
aI3081
aI4455
aI3828
aI2952
aI3888
aI3652
aI4723
aI209
aI3003
aI816
aI950
aI653
aI2589
aI2510
aI264
aI2760
aI393
aI287
aI4008
aI1223
aI3788
aI5032
aI1067
aI3919
aI2213
aI3648
aI2045
aI1711
aI629
aI5179
aI1213
aI353
aI887
aI726
aI2187
aI2784
aI1700
aI54
aI719
aI4686
aI2734
aI5101
aI543
aI3469
aI4830
aI4662
aI3785
aI884
aI4827
aI1076
aI1166
aI1787
aI1767
aI849
aI2983
aI2834
aI2019
aI1002
aI3544
aI3904
aI5058
aI3562
aI672
aI2902
aI1583
aI3253
aI1079
aI4761
aI2678
aI1151
aI932
aI4153
aI1979
aI1235
aI2230
aI5321
aI2772
aI4641
aI4965
aI2918
aI2297
aI2280
aI4188
aI4653
aI4230
aI3072
aI839
aI3033
aI1625
aI3282
aI2012
aI2923
aI2132
aI4778
aI1816
aI4733
aI828
aI812
aI3150
aI2937
aI4289
aI537
aI3696
aI2620
aI3333
aI3327
aI5188
aI3038
aI1919
aI2205
aI114
aI1416
aI1242
aI337
aI3246
aI3021
aI4068
aI4945
aI4873
aI1169
aI2973
aI5009
aI239
aI584
aI2049
aI947
aI2746
aI3809
aI2554
aI765
aI2770
aI2295
aI4731
aI3807
aI1265
aI1790
aI4468
aI2178
aI731
aI4852
aI2218
aI5021
aI1291
aI27
aI1267
aI2538
aI4258
aI4884
aI1643
aI5214
aI4373
aI2460
aI398
aI4247
aI5288
aI1770
aI3692
aI2302
aI4986
aI1304
aI2516
aI1105
aI2057
aI1472
aI2883
aI2749
aI1654
aI1379
aI1792
aI363
aI5230
aI4470
aI5122
aI2191
aI3713
aI644
aI1251
aI297
aI2688
aI3110
aI1831
aI4177
aI748
aI4904
aI2667
aI260
aI4226
aI3983
aI1867
aI2448
aI866
aI2006
aI4932
aI788
aI3987
aI4670
aI318
aI2348
aI4811
aI3359
aI4199
aI3704
aI551
aI4172
aI611
aI3812
aI4952
aI1747
aI3190
aI2199
aI3842
aI897
aI3557
aI1484
aI3223
aI3236
aI224
aI1138
aI4591
aI2616
aI4938
aI4563
aI2817
aI4997
aI4942
aI2196
aI2607
aI2028
aI2386
aI754
aI95
aI1851
aI275
aI2718
aI2236
aI4567
aI563
aI1228
aI2811
aI616
aI2396
aI1371
aI2821
aI417
aI2180
aI3602
aI1478
aI2868
aI5001
aI2074
aI3212
aI3143
aI2610
aI1823
aI2530
aI4527
aI2992
aI512
aI2829
aI2932
aI2662
aI4237
aI2484
aI2
aI4615
aI3947
aI1871
aI1999
aI2371
aI1779
aI2557
aI4381
aI464
aI5303
aI1954
aI3138
aI4351
aI4574
aI858
aI5088
aI5358
aI2320
aI1674
aI328
aI2284
aI1353
aI3394
aI1806
aI4048
aI5068
aI2888
aI1890
aI72
aI733
aI1407
aI2498
aI4975
aI3877
aI3160
aI3835
aI3265
aI3169
aI909
aI921
aI852
aI5053
aI4960
aI1914
aI5014
aI4854
aI105
aI3085
aI2852
aI994
aI2986
aI2220
aI2648
aI5023
aI505
aI1395
aI3052
aI1293
aI4312
aI29
aI1440
aI1338
aI3115
aI474
aI4123
aI3914
aI199
aI2306
aI1908
aI2807
aI2837
aI380
aI2022
aI2031
aI4111
aI1362
aI442
aI2441
aI4414
aI4459
aI4210
aI2915
aI1248
aI3220
aI4309
aI373
aI245
aI1005
aI1455
aI2600
aI2389
aI5193
aI4624
aI1722
aI1446
aI4696
aI1269
aI2540
aI3313
aI4260
aI4753
aI712
aI4183
aI2549
aI3781
aI845
aI2226
aI3106
aI4435
aI2420
aI961
aI1602
aI3898
aI4819
aI2329
aI4283
aI4910
aI2488
aI4747
aI4801
aI4886
aI2504
aI2582
aI5203
aI1347
aI3658
aI1560
aI4981
aI1645
aI1086
aI4439
aI2696
aI590
aI3995
aI1431
aI3046
aI1932
aI2843
aI2756
aI1903
aI757
aI3490
aI98
aI5216
aI4836
aI4375
aI2795
aI768
aI571
aI697
aI825
aI4870
aI5018
aI3187
aI414
aI3391
aI906
aI2849
aI84
aI343
aI3628
aI2462
aI1098
aI3277
aI1854
aI4078
aI400
aI1611
aI523
aI793
aI4249
aI3763
aI1881
aI3547
aI87
aI1299
aI1188
aI5290
aI3058
aI2150
aI1630
aI5106
aI984
aI3850
aI1706
aI174
aI1203
aI1193
aI4320
aI4356
aI305
aI4608
aI4507
aI278
aI5295
aI4807
aI4858
aI3907
aI5061
aI2381
aI3063
aI1772
aI376
aI944
aI2368
aI2211
aI3694
aI3711
aI2528
aI3136
aI1804
aI1393
aI2304
aI4433
aI1930
aI2754
aI4318
aI3504
aI4988
aI1306
aI2518
aI3530
aI2086
aI4718
aI5373
aI148
aI2721
aI4036
aI2239
aI1107
aI6
aI2053
aI4570
aI1389
aI346
aI4242
aI64
aI3287
aI4495
aI1989
aI2170
aI1684
aI282
aI4619
aI1741
aI2712
aI3506
aI4162
aI4891
aI1029
aI3613
aI2059
aI5344
aI4786
aI1597
aI248
aI3568
aI5038
aI1960
aI3154
aI3740
aI4990
aI1578
aI4742
aI566
aI1231
aI4880
aI3979
aI4666
aI3355
aI1474
aI940
aI4192
aI1210
aI999
aI5006
aI641
aI4196
aI2814
aI1848
aI2071
aI2929
aI3944
aI2885
aI3082
aI439
aI4456
aI4306
aI709
aI1083
aI3992
aI2751
aI3565
aI638
aI1008
aI4519
aI2154
aI4420
aI5241
aI1569
aI1308
aI2777
aI1179
aI4057
aI3829
aI619
aI1938
aI2941
aI2953
aI2627
aI3754
aI3889
aI4657
aI3775
aI2408
aI42
aI1656
aI1381
aI2897
aI1402
aI3653
aI4646
aI4019
aI2520
aI3817
aI4724
aI1496
aI210
aI3445
aI3379
aI3004
aI817
aI661
aI3637
aI1011
aI2424
aI3672
aI5337
aI951
aI3532
aI1794
aI654
aI365
aI5232
aI2590
aI2511
aI194
aI1093
aI1458
aI4472
aI3631
aI4131
aI265
aI2761
aI3097
aI3028
aI394
aI2266
aI4087
aI5163
aI4703
aI288
aI2088
aI3479
aI4009
aI4928
aI4587
aI1224
aI5084
aI3789
aI2452
aI3412
aI5124
aI5130
aI2399
aI5033
aI2573
aI1068
aI3718
aI3733
aI4522
aI2115
aI3920
aI451
aI1374
aI2214
aI2879
aI2603
aI1899
aI3649
aI4720
aI3466
aI2046
aI2193
aI3751
aI3715
aI675
aI646
aI1218
aI1253
aI2270
aI387
aI1634
aI3951
aI1712
aI4552
aI678
aI299
aI3823
aI2824
aI2392
aI2111
aI447
aI2564
aI630
aI4765
aI1663
aI3958
aI5375
aI5196
aI3587
aI5180
aI4490
aI420
aI2905
aI2465
aI2183
aI4107
aI13
aI4770
aI1158
aI5110
aI4627
aI3935
aI1045
aI2105
aI4091
aI4293
aI2789
aI2701
aI1283
aI649
aI1358
aI1214
aI2690
aI3605
aI354
aI888
aI1875
aI1515
aI3017
aI727
aI1101
aI410
aI1148
aI2188
aI2003
aI1481
aI3112
aI4798
aI1521
aI1278
aI3344
aI1524
aI1833
aI3304
aI601
aI2079
aI607
aI2785
aI1120
aI150
aI1058
aI1701
aI2723
aI55
aI109
aI142
aI162
aI1124
aI720
aI4038
aI5354
aI4179
aI489
aI4687
aI3685
aI2241
aI4899
aI1542
aI2157
aI2414
aI188
aI2735
aI876
aI4843
aI4423
aI2259
aI4502
aI3553
aI750
aI4906
aI5102
aI2871
aI544
aI1109
aI8
aI595
aI2669
aI37
aI2475
aI975
aI3470
aI5148
aI4831
aI2685
aI4159
aI4663
aI2068
aI2508
aI262
aI1221
aI3786
aI885
aI541
aI4828
aI2017
aI1077
aI930
aI2278
aI4651
aI4228
aI3280
aI535
aI1167
aI1788
aI1768
aI2055
aI1470
aI3985
aI1869
aI4572
aI850
aI2984
aI2835
aI2020
aI1003
aI1720
aI3779
aI3104
aI3896
aI1558
aI4076
aI3545
aI1186
aI3905
aI5059
aI1391
aI1987
aI5004
aI437
aI3563
aI1567
aI1494
aI4085
aI4585
aI2450
aI3749
aI673
aI2903
aI1156
aI1281
aI1146
aI2077
aI1540
aI2412
aI533
aI1725
aI312
aI4001
aI496
aI4220
aI348
aI2436
aI3215
aI46
aI1584
aI3089
aI2247
aI3254
aI3206
aI458
aI5332
aI2960
aI3347
aI2375
aI3864
aI868
aI1735
aI1727
aI1783
aI2008
aI2128
aI3146
aI3803
aI4934
aI206
aI2586
aI5176
aI4150
aI1813
aI2457
aI4244
aI2613
aI4045
aI4411
aI790
aI171
aI1681
aI1080
aI3989
aI2561
aI4762
aI1660
aI2472
aI2682
aI3746
aI2679
aI2094
aI3178
aI66
aI1857
aI4672
aI3289
aI2965
aI4137
aI3964
aI1326
aI1050
aI314
aI3583
aI4081
aI1152
aI933
aI1826
aI4154
aI5154
aI4497
aI1980
aI403
aI1236
aI4402
aI5244
aI1256
aI1991
aI2097
aI3181
aI1385
aI2875
aI4533
aI2728
aI4003
aI4267
aI742
aI691
aI5169
aI1692
aI3927
aI4579
aI1572
aI320
aI1758
aI3664
aI1614
aI2350
aI2172
aI1311
aI4813
aI526
aI1425
aI2231
aI1038
aI5322
aI4597
aI1550
aI498
aI796
aI17
aI3361
aI218
aI1686
aI4201
aI2533
aI2780
aI4222
aI784
aI2773
aI4642
aI3681
aI1182
aI3706
aI1925
aI2273
aI4024
aI133
aI4252
aI3373
aI3439
aI1527
aI3517
aI5268
aI1836
aI5136
aI4966
aI4030
aI1449
aI3307
aI1533
aI230
aI988
aI3124
aI5274
aI553
aI4060
aI2342
aI2040
aI2919
aI2298
aI3700
aI4429
aI4738
aI390
aI284
aI350
aI51
aI2675
aI2292
aI4465
aI4174
aI613
aI4234
aI2281
aI69
aI3832
aI3262
aI2438
aI3217
aI4621
aI1344
aI2525
aI4189
aI4303
aI2624
aI4654
aI3814
aI4530
aI3121
aI48
aI4231
aI2636
aI4954
aI1464
aI3793
aI3073
aI3337
aI1749
aI3883
aI2741
aI4558
aI840
aI3034
aI1650
aI1743
aI2714
aI1626
aI3283
aI2166
aI4015
aI4699
aI2013
aI5364
aI2924
aI484
aI2133
aI3229
aI5382
aI4863
aI3432
aI3766
aI3399
aI2138
aI1586
aI4537
aI3508
aI4779
aI1637
aI3192
aI4164
aI965
aI2201
aI1607
aI2568
aI3298
aI1272
aI1489
aI3091
aI4893
aI2249
aI2639
aI3424
aI4678
aI3844
aI4385
aI1031
aI1970
aI2856
aI1817
aI2336
aI3256
aI1317
aI625
aI3208
aI460
aI2708
aI3954
aI1421
aI4734
aI2657
aI4542
aI179
aI1884
aI899
aI154
aI3615
aI2061
aI5346
aI1715
aI1860
aI829
aI4788
aI4774
aI813
aI1163
aI3559
aI4638
aI762
aI548
aI560
aI5050
aI4957
aI1599
aI4280
aI3043
aI520
aI4715
aI3151
aI4516
aI1176
aI4054
aI2938
aI5334
aI5160
aI4290
aI1512
aI604
aI3550
aI538
aI1467
aI2962
aI4399
aI2037
aI3697
aI2621
aI3334
aI4555
aI3295
aI1486
aI4675
aI622
aI5047
aI3292
aI3796
aI4479
aI3457
aI1941
aI120
aI2944
aI2543
aI3349
aI3076
aI1062
aI3328
aI2968
aI359
aI5189
aI3624
aI2377
aI3526
aI2082
aI1593
aI634
aI3340
aI4216
aI2956
aI3799
aI3225
aI3039
aI3522
aI250
aI4098
aI3316
aI90
aI1920
aI4633
aI2630
aI3570
aI3866
aI5075
aI3854
aI1752
aI4140
aI681
aI2206
aI3405
aI5040
aI1130
aI1507
aI115
aI3238
aI576
aI4482
aI2995
aI3967
aI1668
aI4119
aI2578
aI4263
aI226
aI1417
aI1243
aI338
aI515
aI468
aI1962
aI3247
aI4272
aI1329
aI254
aI1842
aI3199
aI3022
aI3460
aI4069
aI4756
aI432
aI4946
aI4874
aI1170
aI1944
aI1113
aI2974
aI1017
aI3757
aI870
aI1140
aI123
aI5307
aI2947
aI5368
aI715
aI3156
aI5010
aI1737
aI3892
aI3742
aI4593
aI4395
aI4992
aI240
aI4102
aI1053
aI5280
aI3320
aI585
aI1729
aI1580
aI3069
aI5211
aI3166
aI2546
aI4744
aI568
aI302
aI2050
aI3352
aI937
aI3079
aI3826
aI3886
aI948
aI1065
aI3646
aI2732
aI4660
aI882
aI4825
aI1074
aI1785
aI2832
aI1233
aI4186
aI2010
aI2130
aI3148
aI2935
aI2618
aI3331
aI3244
aI2971
aI2744
aI2552
aI3805
aI1263
aI4882
aI1302
aI2747
aI2665
aI3981
aI2446
aI4668
aI3357
aI3810
aI3234
aI4936
aI4561
aI4940
aI273
aI4565
aI2819
aI1476
aI2866
aI4999
aI2827
aI2555
aI4349
aI843
aI766
aI1191
aI5293
aI3061
aI942
aI4240
aI1958
aI4194
aI3942
aI208
aI2588
aI4007
aI1710
aI5178
aI1212
aI5100
aI3784
aI848
aI2982
aI1001
aI3903
aI671
aI2901
aI4152
aI2229
aI5320
aI2771
aI2296
aI1815
aI4732
aI4288
aI3037
aI4067
aI4944
aI5008
aI583
aI3808
aI2769
aI4730
aI1290
aI1266
aI2459
aI4246
aI1653
aI1791
aI362
aI4469
aI5121
aI643
aI296
aI3109
aI1830
aI747
aI1866
aI317
aI4198
aI610
aI4951
aI1746
aI2198
aI3841
aI2615
aI2816
aI4996
aI94
aI1850
aI2717
aI2395
aI1370
aI2179
aI2073
aI3142
aI2609
aI2991
aI2931
aI2661
aI2483
aI3946
aI1998
aI1953
aI327
aI4047
aI2887
aI732
aI1406
aI4974
aI4853
aI104
aI3084
aI2219
aI5022
aI1292
aI28
aI1337
aI473
aI1907
aI2030
aI441
aI4413
aI4458
aI2914
aI1247
aI4308
aI244
aI1454
aI2388
aI5192
aI1268
aI2539
aI3312
aI4259
aI711
aI2225
aI960
aI2328
aI2487
aI4885
aI5202
aI3657
aI1644
aI1085
aI4438
aI3994
aI2842
aI756
aI97
aI5215
aI4374
aI696
aI824
aI3390
aI83
aI342
aI3627
aI2461
aI1853
aI399
aI792
aI4248
aI5289
aI1629
aI983
aI1705
aI173
aI1202
aI4355
aI4607
aI277
aI2380
aI1771
aI3693
aI3710
aI2303
aI1929
aI2753
aI4987
aI1305
aI2517
aI3529
aI2085
aI2720
aI2238
aI1106
aI5
aI4569
aI63
aI3286
aI2169
aI1683
aI4618
aI3612
aI2058
aI5343
aI4785
aI1596
aI3567
aI1577
aI565
aI1230
aI4879
aI3978
aI1473
aI1209
aI998
aI640
aI2813
aI2928
aI2884
aI708
aI1082
aI3991
aI2750
aI637
aI2153
aI618
aI2407
aI1655
aI1380
aI2896
aI4018
aI660
aI1010
aI2423
aI1793
aI364
aI5231
aI1092
aI4471
aI3096
aI3027
aI2265
aI4702
aI3478
aI4927
aI5123
aI2398
aI2572
aI4521
aI2114
aI450
aI1373
aI1898
aI3465
aI2192
aI3714
aI645
aI1252
aI1633
aI3950
aI298
aI3822
aI2823
aI2110
aI2563
aI4764
aI1662
aI3586
aI419
aI2182
aI4106
aI12
aI4769
aI5109
aI1044
aI2104
aI2788
aI2689
aI3604
aI1874
aI2002
aI1480
aI3111
aI4797
aI1520
aI3343
aI1832
aI3303
aI600
aI1057
aI141
aI1123
aI5353
aI4178
aI488
aI2156
aI187
aI4422
aI749
aI4905
aI2870
aI2668
aI36
aI2474
aI974
aI5147
aI2684
aI4158
aI2067
aI261
aI2016
aI2277
aI4650
aI4227
aI3984
aI1868
aI3778
aI1557
aI4075
aI1986
aI5003
aI4084
aI2449
aI3748
aI1155
aI2076
aI1539
aI2411
aI311
aI4000
aI495
aI4219
aI2435
aI3214
aI45
aI3205
aI457
aI2959
aI2374
aI3863
aI867
aI1782
aI2007
aI2127
aI3145
aI3802
aI4933
aI205
aI4149
aI1812
aI2456
aI2612
aI789
aI3988
aI2560
aI1659
aI2471
aI2681
aI2093
aI3177
aI4671
aI1325
aI1825
aI5243
aI2096
aI3180
aI1384
aI2727
aI3926
aI4578
aI1571
aI319
aI2349
aI1310
aI4812
aI3360
aI4200
aI2532
aI2779
aI1181
aI3705
aI1924
aI4023
aI3372
aI4029
aI987
aI5273
aI552
aI4059
aI2674
aI2291
aI4173
aI612
aI68
aI3831
aI2524
aI4302
aI3813
aI4529
aI2635
aI4953
aI1748
aI3228
aI4862
aI2137
aI3191
aI964
aI2200
aI1606
aI2567
aI3423
aI3843
aI4384
aI1969
aI2335
aI2656
aI178
aI898
aI153
aI1859
aI1162
aI3558
aI4637
aI761
aI559
aI3042
aI519
aI4515
aI1175
aI2036
aI1485
aI4674
aI621
aI5046
aI3291
aI4478
aI3456
aI1940
aI2943
aI1061
aI2967
aI3525
aI633
aI2955
aI3224
aI2629
aI3853
aI4139
aI1506
aI3237
aI2994
aI3966
aI1667
aI225
aI514
aI467
aI4271
aI1328
aI253
aI431
aI3756
aI1139
aI5306
aI5367
aI3891
aI4592
aI4101
aI1052
aI3319
aI936
aI4659
aI4824
aI1073
aI2831
aI2934
aI2617
aI3243
aI2664
aI3233
aI4939
aI4564
aI2818
aI2865
aI4998
aI4239
aI1957
aI3941
aI1709
aI3902
aI2900
aI4066
aI4943
aI582
aI4729
aI295
aI1829
aI746
aI1865
aI316
aI2197
aI93
aI1369
aI3141
aI2608
aI2990
aI326
aI1405
aI472
aI2029
aI2387
aI2224
aI959
aI2327
aI2486
aI3656
aI2841
aI755
aI96
aI695
aI1852
aI1704
aI1201
aI4354
aI276
aI2719
aI2237
aI4
aI4568
aI4617
aI5342
aI4784
aI564
aI1229
aI3977
aI1208
aI2812
aI2927
aI617
aI2406
aI1091
aI4926
aI2397
aI1372
aI3949
aI3821
aI2822
aI3585
aI418
aI2181
aI4768
aI1043
aI3603
aI1873
aI2001
aI1479
aI3302
aI599
aI487
aI186
aI2869
aI35
aI4157
aI4649
aI3777
aI4074
aI1985
aI5002
aI4083
aI1154
aI2075
aI1538
aI2410
aI494
aI2434
aI3213
aI44
aI2373
aI3862
aI1781
aI3144
aI2611
aI2559
aI1658
aI1324
aI1824
aI1383
aI2726
aI4577
aI2531
aI1923
aI4022
aI3371
aI4028
aI2673
aI2523
aI4528
aI2634
aI2136
aI1605
aI4383
aI2334
aI2655
aI177
aI4636
aI4514
aI1505
aI2993
aI1666
aI513
aI466
aI430
aI5305
aI935
aI4823
aI2830
aI2933
aI2663
aI3232
aI4238
aI1956
aI3901
aI2899
aI581
aI4728
aI294
aI1828
aI1368
aI3140
aI325
aI1404
aI958
aI2326
aI2485
aI3655
aI1200
aI4353
aI3
aI4616
aI3976
aI1207
aI2405
aI4925
aI3948
aI3820
aI1872
aI2000
aI4156
aI4648
aI493
aI2433
aI2372
aI1780
aI2558
aI1323
aI4576
aI4021
aI2522
aI2633
aI4382
aI2333
aI2654
aI465
aI5304
aI4822
aI1955
aI4727
aI293
aI3139
aI1199
aI4352
aI3975
aI1206
aI4924
aI3819
aI2432
aI4575
aI2332
aI2653
aI4726
aI3974
aI2431
aI2652
aI2430
asS'dollarRow'
p26
I2674
sS'first'
p27
(dp28
g12
I1
sg14
I1292
sg20
I0
sg18
I2449
sg16
I3703
ssb.