ccopy_reg
_reconstructor
p0
(cmapperAlignKmerIndex
KmerIndex
p1
c__builtin__
object
p2
Ntp3
Rp4
(dp5
S'index'
p6
(lp7
(S'AAAAAACGTT'
p8
I859
tp9
a(S'AAAAACATTT'
p10
I1498
tp11
a(S'AAAAACCAAG'
p12
I5089
tp13
a(S'AAAAACGTTC'
p14
I860
tp15
a(S'AAAAACTGAC'
p16
I212
tp17
a(S'AAAAAGAAAG'
p18
I4445
tp19
a(S'AAAAAGAGAG'
p20
I5257
tp21
a(S'AAAAAGAGAT'
p22
I3447
tp23
a(S'AAAAAGAGCT'
p24
I3381
tp25
a(S'AAAAAGCCGC'
p26
I3006
tp27
a(S'AAAAAGTCAG'
p28
I5027
tp29
a(S'AAAAATGATT'
p30
I5359
tp31
a(S'AAAAATGGTT'
p32
I4344
tp33
a(S'AAAAATTACG'
p34
I819
tp35
a(S'AAAAATTATC'
p36
I58
tp37
a(S'AAAAATTTTA'
p38
I2321
tp39
a(S'AAAACACCAA'
p40
I3573
tp41
a(S'AAAACATTAT'
p42
I702
tp43
a(S'AAAACATTTG'
p44
I1499
tp45
a(S'AAAACCAAGC'
p46
I5090
tp47
a(S'AAAACCTCTT'
p48
I1675
tp49
a(S'AAAACGTGCG'
p50
I807
tp51
a(S'AAAACGTTCT'
p52
I861
tp53
a(S'AAAACTGACG'
p54
I213
tp55
a(S'AAAAGAAAGG'
p56
I4446
tp57
a(S'AAAAGAGAGA'
p58
I5258
tp59
a(S'AAAAGAGATT'
p60
I3448
tp61
a(S'AAAAGAGCGT'
p62
I329
tp63
a(S'AAAAGAGCTT'
p64
I3382
tp65
a(S'AAAAGATTGA'
p66
I2285
tp67
a(S'AAAAGCCGCC'
p68
I3007
tp69
a(S'AAAAGTCAGA'
p70
I5028
tp71
a(S'AAAAGTTACT'
p72
I5284
tp73
a(S'AAAATACGTG'
p74
I4866
tp75
a(S'AAAATCCCTA'
p76
I1354
tp77
a(S'AAAATGAGAA'
p78
I129
tp79
a(S'AAAATGAGAC'
p80
I3435
tp81
a(S'AAAATGAGAT'
p82
I3513
tp83
a(S'AAAATGATTG'
p84
I5360
tp85
a(S'AAAATGCAAC'
p86
I3395
tp87
a(S'AAAATGCTCA'
p88
I5156
tp89
a(S'AAAATGGTTT'
p90
I4345
tp91
a(S'AAAATTACGT'
p92
I820
tp93
a(S'AAAATTATCT'
p94
I59
tp95
a(S'AAAATTCGAC'
p96
I137
tp97
a(S'AAAATTTTAA'
p98
I2322
tp99
a(S'AAACACCAAT'
p100
I3574
tp101
a(S'AAACACTGAC'
p102
I778
tp103
a(S'AAACATTATT'
p104
I703
tp105
a(S'AAACATTCTG'
p106
I1807
tp107
a(S'AAACATTTGG'
p108
I1500
tp109
a(S'AAACCAAGCT'
p110
I5091
tp111
a(S'AAACCTCTTA'
p112
I1676
tp113
a(S'AAACCTGCTA'
p114
I4049
tp115
a(S'AAACGCAGAA'
p116
I3723
tp117
a(S'AAACGGCCTG'
p118
I663
tp119
a(S'AAACGGCTGG'
p120
I3639
tp121
a(S'AAACGTCGTT'
p122
I1763
tp123
a(S'AAACGTGCGT'
p124
I808
tp125
a(S'AAACGTTCTG'
p126
I862
tp127
a(S'AAACTGACGC'
p128
I214
tp129
a(S'AAACTGGCGC'
p130
I1013
tp131
a(S'AAACTTTTTT'
p132
I2426
tp133
a(S'AAAGAAAGGT'
p134
I4447
tp135
a(S'AAAGAAATGA'
p136
I3674
tp137
a(S'AAAGAATGGA'
p138
I5069
tp139
a(S'AAAGACCAGG'
p140
I3494
tp141
a(S'AAAGACGGTA'
p142
I3869
tp143
a(S'AAAGAGAGAT'
p144
I5259
tp145
a(S'AAAGAGATTA'
p146
I2889
tp147
a(S'AAAGAGATTC'
p148
I1891
tp149
a(S'AAAGAGATTG'
p150
I3416
tp151
a(S'AAAGAGATTG'
p152
I3449
tp153
a(S'AAAGAGCGTG'
p154
I330
tp155
a(S'AAAGAGCTTA'
p156
I3383
tp157
a(S'AAAGATTGAG'
p158
I2286
tp159
a(S'AAAGCAGGAA'
p160
I73
tp161
a(S'AAAGCCGCCT'
p162
I3008
tp163
a(S'AAAGCCGCTG'
p164
I734
tp165
a(S'AAAGCGCCGT'
p166
I1408
tp167
a(S'AAAGCTACAT'
p168
I2499
tp169
a(S'AAAGCTACCA'
p170
I4976
tp171
a(S'AAAGCTGATG'
p172
I3878
tp173
a(S'AAAGCTGGTA'
p174
I3161
tp175
a(S'AAAGCTGTTG'
p176
I3836
tp177
a(S'AAAGGAAAGG'
p178
I3266
tp179
a(S'AAAGGACTTC'
p180
I3170
tp181
a(S'AAAGGATACT'
p182
I3271
tp183
a(S'AAAGGATATT'
p184
I3769
tp185
a(S'AAAGGCAAGC'
p186
I910
tp187
a(S'AAAGGCGCTC'
p188
I922
tp189
a(S'AAAGGTAAAA'
p190
I853
tp191
a(S'AAAGGTATTA'
p192
I4451
tp193
a(S'AAAGGTCTAG'
p194
I5054
tp195
a(S'AAAGGTGAGC'
p196
I4961
tp197
a(S'AAAGGTGCTT'
p198
I1915
tp199
a(S'AAAGTCAGAT'
p200
I5029
tp201
a(S'AAAGTTACTG'
p202
I5285
tp203
a(S'AAAGTTTGGA'
p204
I509
tp205
a(S'AAATAACCGT'
p206
I3911
tp207
a(S'AAATACGTGG'
p208
I4867
tp209
a(S'AAATACGTTA'
p210
I5015
tp211
a(S'AAATAGCTTG'
p212
I4855
tp213
a(S'AAATCAAAGA'
p214
I3669
tp215
a(S'AAATCATGAG'
p216
I384
tp217
a(S'AAATCCCTAA'
p218
I1355
tp219
a(S'AAATCGAAGT'
p220
I106
tp221
a(S'AAATCGCGTA'
p222
I4499
tp223
a(S'AAATCTGCCA'
p224
I3086
tp225
a(S'AAATCTGCTC'
p226
I5329
tp227
a(S'AAATCTGTCC'
p228
I5173
tp229
a(S'AAATCTTGGA'
p230
I3961
tp231
a(S'AAATGACGAC'
p232
I1547
tp233
a(S'AAATGACTCG'
p234
I3678
tp235
a(S'AAATGAGAAA'
p236
I130
tp237
a(S'AAATGAGACT'
p238
I3436
tp239
a(S'AAATGAGATG'
p240
I3514
tp241
a(S'AAATGATTGG'
p242
I5361
tp243
a(S'AAATGCAACT'
p244
I3396
tp245
a(S'AAATGCCGCG'
p246
I2853
tp247
a(S'AAATGCTCAC'
p248
I5157
tp249
a(S'AAATGCTTAC'
p250
I3621
tp251
a(S'AAATGGTTTT'
p252
I4346
tp253
a(S'AAATTACGTG'
p254
I821
tp255
a(S'AAATTATCTT'
p256
I60
tp257
a(S'AAATTATGTC'
p258
I995
tp259
a(S'AAATTCGACC'
p260
I138
tp261
a(S'AAATTGTTTG'
p262
I2987
tp263
a(S'AAATTTAATG'
p264
I2221
tp265
a(S'AAATTTATGC'
p266
I5339
tp267
a(S'AAATTTCTAT'
p268
I1982
tp269
a(S'AAATTTTAAT'
p270
I2323
tp271
a(S'AAATTTTTTG'
p272
I2649
tp273
a(S'AACAAAAAGT'
p274
I5024
tp275
a(S'AACAAAGTTT'
p276
I506
tp277
a(S'AACAACTATT'
p278
I1396
tp279
a(S'AACAACTCAC'
p280
I5078
tp281
a(S'AACAATACTG'
p282
I3053
tp283
a(S'AACAATCCGT'
p284
I405
tp285
a(S'AACAATTTCT'
p286
I3857
tp287
a(S'AACAATTTTA'
p288
I953
tp289
a(S'AACACCAATC'
p290
I3575
tp291
a(S'AACACTACTG'
p292
I1294
tp293
a(S'AACACTATAG'
p294
I4313
tp295
a(S'AACACTGACG'
p296
I779
tp297
a(S'AACACTTTCG'
p298
I30
tp299
a(S'AACAGAAGGA'
p300
I3534
tp301
a(S'AACAGACCTA'
p302
I1796
tp303
a(S'AACAGCAGGT'
p304
I3594
tp305
a(S'AACAGTGGAT'
p306
I1238
tp307
a(S'AACATTATTA'
p308
I704
tp309
a(S'AACATTCAAA'
p310
I656
tp311
a(S'AACATTCTGT'
p312
I1808
tp313
a(S'AACATTTGGA'
p314
I1501
tp315
a(S'AACCAAGCTG'
p316
I5092
tp317
a(S'AACCACTAAT'
p318
I367
tp319
a(S'AACCAGATAT'
p320
I5234
tp321
a(S'AACCCTAATG'
p322
I1441
tp323
a(S'AACCCTGATA'
p324
I1339
tp325
a(S'AACCCTGATG'
p326
I3116
tp327
a(S'AACCGAAGAT'
p328
I475
tp329
a(S'AACCGCATCA'
p330
I4124
tp331
a(S'AACCGCCTTC'
p332
I2120
tp333
a(S'AACCGTCAGG'
p334
I3915
tp335
a(S'AACCGTCCTT'
p336
I1696
tp337
a(S'AACCTCTTAT'
p338
I1677
tp339
a(S'AACCTGCTAT'
p340
I4050
tp341
a(S'AACCTGTGAC'
p342
I5316
tp343
a(S'AACGAGAAGA'
p344
I4361
tp345
a(S'AACGATTCTG'
p346
I200
tp347
a(S'AACGCAAAAA'
p348
I5252
tp349
a(S'AACGCAGAAT'
p350
I3724
tp351
a(S'AACGCCCTCT'
p352
I4404
tp353
a(S'AACGCCGAAG'
p354
I2307
tp355
a(S'AACGCCGCTA'
p356
I2592
tp357
a(S'AACGCGTACT'
p358
I2144
tp359
a(S'AACGCTAAAG'
p360
I1909
tp361
a(S'AACGGCCTGT'
p362
I664
tp363
a(S'AACGGCTGGT'
p364
I3640
tp365
a(S'AACGTCGTTA'
p366
I1764
tp367
a(S'AACGTGATTA'
p368
I1622
tp369
a(S'AACGTGCGTC'
p370
I809
tp371
a(S'AACGTTATAT'
p372
I2513
tp373
a(S'AACGTTCTGG'
p374
I863
tp375
a(S'AACGTTTATG'
p376
I2808
tp377
a(S'AACTAACGAT'
p378
I196
tp379
a(S'AACTACTCCG'
p380
I1095
tp381
a(S'AACTATTTTA'
p382
I1399
tp383
a(S'AACTCACTAA'
p384
I5081
tp385
a(S'AACTGACCAA'
p386
I1755
tp387
a(S'AACTGACGCG'
p388
I215
tp389
a(S'AACTGGACAA'
p390
I3402
tp391
a(S'AACTGGCGCC'
p392
I1014
tp393
a(S'AACTTACCAA'
p394
I5199
tp395
a(S'AACTTCGGGA'
p396
I5144
tp397
a(S'AACTTGATAT'
p398
I4299
tp399
a(S'AACTTGCCGC'
p400
I1966
tp401
a(S'AACTTTACCG'
p402
I2838
tp403
a(S'AACTTTTTTT'
p404
I2427
tp405
a(S'AAGAAAACGT'
p406
I804
tp407
a(S'AAGAAAGGTA'
p408
I4448
tp409
a(S'AAGAAATCAT'
p410
I381
tp411
a(S'AAGAAATGAC'
p412
I3675
tp413
a(S'AAGAACGCGT'
p414
I2141
tp415
a(S'AAGAACGTGA'
p416
I1619
tp417
a(S'AAGAAGCTGT'
p418
I5114
tp419
a(S'AAGAAGTTTA'
p420
I2023
tp421
a(S'AAGAATGGAA'
p422
I5070
tp423
a(S'AAGACCAGGT'
p424
I3495
tp425
a(S'AAGACGGTAA'
p426
I3870
tp427
a(S'AAGACGGTTA'
p428
I4367
tp429
a(S'AAGAGAGATG'
p430
I5260
tp431
a(S'AAGAGATTAT'
p432
I2890
tp433
a(S'AAGAGATTCA'
p434
I1892
tp435
a(S'AAGAGATTCT'
p436
I4143
tp437
a(S'AAGAGATTGC'
p438
I3417
tp439
a(S'AAGAGATTGC'
p440
I3450
tp441
a(S'AAGAGCGTGG'
p442
I331
tp443
a(S'AAGAGCTTAC'
p444
I3384
tp445
a(S'AAGATGATGC'
p446
I1460
tp447
a(S'AAGATGATTT'
p448
I480
tp449
a(S'AAGATTGAGT'
p450
I2287
tp451
a(S'AAGATTGCTG'
p452
I2032
tp453
a(S'AAGATTGCTG'
p454
I4474
tp455
a(S'AAGCAACAGC'
p456
I3590
tp457
a(S'AAGCAGAACG'
p458
I5246
tp459
a(S'AAGCAGATGG'
p460
I4112
tp461
a(S'AAGCAGGAAT'
p462
I74
tp463
a(S'AAGCATTTGT'
p464
I1363
tp465
a(S'AAGCCGCCTC'
p466
I3009
tp467
a(S'AAGCCGCTGA'
p468
I735
tp469
a(S'AAGCGAAGCG'
p470
I2355
tp471
a(S'AAGCGCCGTG'
p472
I1409
tp473
a(S'AAGCGCGGTA'
p474
I2360
tp475
a(S'AAGCGGTAAA'
p476
I2314
tp477
a(S'AAGCGTAAAG'
p478
I916
tp479
a(S'AAGCTACATC'
p480
I2500
tp481
a(S'AAGCTACCAG'
p482
I4977
tp483
a(S'AAGCTCAAAC'
p484
I3633
tp485
a(S'AAGCTCATTC'
p486
I443
tp487
a(S'AAGCTCTTAC'
p488
I167
tp489
a(S'AAGCTCTTGG'
p490
I4133
tp491
a(S'AAGCTGATGG'
p492
I3879
tp493
a(S'AAGCTGCTTA'
p494
I1589
tp495
a(S'AAGCTGGCTG'
p496
I4391
tp497
a(S'AAGCTGGGTT'
p498
I5207
tp499
a(S'AAGCTGGTAA'
p500
I3162
tp501
a(S'AAGCTGGTTC'
p502
I2442
tp503
a(S'AAGCTGTCGC'
p504
I5096
tp505
a(S'AAGCTGTTCA'
p506
I5117
tp507
a(S'AAGCTGTTGC'
p508
I3837
tp509
a(S'AAGGAAAGGA'
p510
I3267
tp511
a(S'AAGGACTGGT'
p512
I267
tp513
a(S'AAGGACTGTG'
p514
I2763
tp515
a(S'AAGGACTTCT'
p516
I3171
tp517
a(S'AAGGAGTCTA'
p518
I3539
tp519
a(S'AAGGAGTGAT'
p520
I834
tp521
a(S'AAGGATACTC'
p522
I3272
tp523
a(S'AAGGATATTC'
p524
I4415
tp525
a(S'AAGGATATTT'
p526
I3770
tp527
a(S'AAGGATGAGT'
p528
I4460
tp529
a(S'AAGGATGGTG'
p530
I1258
tp531
a(S'AAGGATGTTT'
p532
I1993
tp533
a(S'AAGGCAAGCG'
p534
I911
tp535
a(S'AAGGCGCTCG'
p536
I923
tp537
a(S'AAGGCGCTGA'
p538
I684
tp539
a(S'AAGGCTAATG'
p540
I4691
tp541
a(S'AAGGCTCTAA'
p542
I3099
tp543
a(S'AAGGCTGCTT'
p544
I4211
tp545
a(S'AAGGCTTCCC'
p546
I2099
tp547
a(S'AAGGGGACGA'
p548
I4335
tp549
a(S'AAGGTAAAAA'
p550
I854
tp551
a(S'AAGGTACGTT'
p552
I3183
tp553
a(S'AAGGTATTAA'
p554
I4452
tp555
a(S'AAGGTCTAGG'
p556
I5055
tp557
a(S'AAGGTGAGCC'
p558
I4962
tp559
a(S'AAGGTGATGT'
p560
I3030
tp561
a(S'AAGGTGCTTT'
p562
I1916
tp563
a(S'AAGGTTAGTG'
p564
I3689
tp565
a(S'AAGTCAGATA'
p566
I5030
tp567
a(S'AAGTCTGCCG'
p568
I3251
tp569
a(S'AAGTGAGGTG'
p570
I2916
tp571
a(S'AAGTGGACTG'
p572
I112
tp573
a(S'AAGTGGCTTA'
p574
I237
tp575
a(S'AAGTTAACAC'
p576
I25
tp577
a(S'AAGTTAATGG'
p578
I4256
tp579
a(S'AAGTTACTGA'
p580
I396
tp581
a(S'AAGTTACTGT'
p582
I5286
tp583
a(S'AAGTTCATGA'
p584
I1249
tp585
a(S'AAGTTGCTTG'
p586
I3221
tp587
a(S'AAGTTTAAGA'
p588
I2026
tp589
a(S'AAGTTTGGAT'
p590
I510
tp591
a(S'AATAAAATCC'
p592
I1351
tp593
a(S'AATAACACTA'
p594
I4310
tp595
a(S'AATAACCGTC'
p596
I3912
tp597
a(S'AATAACGTTT'
p598
I2805
tp599
a(S'AATACGAAAG'
p600
I3488
tp601
a(S'AATACGTGGC'
p602
I4868
tp603
a(S'AATACGTTAA'
p604
I5016
tp605
a(S'AATACTGTAG'
p606
I3056
tp607
a(S'AATAGCTTGC'
p608
I4856
tp609
a(S'AATAGGTAAG'
p610
I374
tp611
a(S'AATAGTCAGG'
p612
I2209
tp613
a(S'AATATCTATA'
p614
I1387
tp615
a(S'AATATGCTTG'
p616
I246
tp617
a(S'AATATTCAAA'
p618
I1006
tp619
a(S'AATCAAAAAG'
p620
I3377
tp621
a(S'AATCAAAGAA'
p622
I3670
tp623
a(S'AATCAAGATG'
p624
I1456
tp625
a(S'AATCAGAAAG'
p626
I3410
tp627
a(S'AATCAGAATG'
p628
I5128
tp629
a(S'AATCAGCGGT'
p630
I3731
tp631
a(S'AATCAGGTTA'
p632
I2877
tp633
a(S'AATCAGGTTG'
p634
I2601
tp635
a(S'AATCATGACT'
p636
I2268
tp637
a(S'AATCATGAGT'
p638
I385
tp639
a(S'AATCATGTTT'
p640
I2390
tp641
a(S'AATCCAACTT'
p642
I5194
tp643
a(S'AATCCCAATG'
p644
I4625
tp645
a(S'AATCCCCAAT'
p646
I4089
tp647
a(S'AATCCCTAAG'
p648
I1356
tp649
a(S'AATCCGTACG'
p650
I408
tp651
a(S'AATCGAAGTG'
p652
I107
tp653
a(S'AATCGCCGCC'
p654
I4841
tp655
a(S'AATCGCGTAG'
p656
I4500
tp657
a(S'AATCTCTGGG'
p658
I1723
tp659
a(S'AATCTGCCAT'
p660
I3087
tp661
a(S'AATCTGCCGA'
p662
I2245
tp663
a(S'AATCTGCTCA'
p664
I5330
tp665
a(S'AATCTGTCCA'
p666
I5174
tp667
a(S'AATCTTGGAG'
p668
I3962
tp669
a(S'AATCTTTCCA'
p670
I3581
tp671
a(S'AATGACAAAT'
p672
I5167
tp673
a(S'AATGACCAAA'
p674
I3662
tp675
a(S'AATGACGACT'
p676
I1548
tp677
a(S'AATGACTCGC'
p678
I3679
tp679
a(S'AATGAGAAAA'
p680
I131
tp681
a(S'AATGAGACTC'
p682
I3437
tp683
a(S'AATGAGATGC'
p684
I3515
tp685
a(S'AATGAGCCGC'
p686
I5134
tp687
a(S'AATGAGCTTA'
p688
I1447
tp689
a(S'AATGATTCAC'
p690
I4697
tp691
a(S'AATGATTGGC'
p692
I5362
tp693
a(S'AATGCAACTG'
p694
I3397
tp695
a(S'AATGCAATGC'
p696
I4535
tp697
a(S'AATGCCACTC'
p698
I1270
tp699
a(S'AATGCCGCGG'
p700
I2854
tp701
a(S'AATGCGACAG'
p702
I4540
tp703
a(S'AATGCTACAA'
p704
I4278
tp705
a(S'AATGCTCACA'
p706
I5158
tp707
a(S'AATGCTGGTA'
p708
I2541
tp709
a(S'AATGCTTACT'
p710
I3622
tp711
a(S'AATGCTTGGC'
p712
I4096
tp713
a(S'AATGCTTGGG'
p714
I3314
tp715
a(S'AATGCTTTGC'
p716
I4631
tp717
a(S'AATGGAACAA'
p718
I5073
tp719
a(S'AATGGATGAA'
p720
I4261
tp721
a(S'AATGGCCGTC'
p722
I4754
tp723
a(S'AATGGCGTCG'
p724
I713
tp725
a(S'AATGGTCGCC'
p726
I2730
tp727
a(S'AATGGTGATA'
p728
I4184
tp729
a(S'AATGGTGGTT'
p730
I2550
tp731
a(S'AATGGTTTTT'
p732
I4347
tp733
a(S'AATGTCACGC'
p734
I4005
tp735
a(S'AATGTCGTCA'
p736
I3782
tp737
a(S'AATGTCTAAA'
p738
I846
tp739
a(S'AATGTGACCG'
p740
I2227
tp741
a(S'AATGTGCTCC'
p742
I4286
tp743
a(S'AATGTTCCTA'
p744
I3107
tp745
a(S'AATTAAATCG'
p746
I102
tp747
a(S'AATTACCCCA'
p748
I4436
tp749
a(S'AATTACGTGC'
p750
I822
tp751
a(S'AATTACTACT'
p752
I81
tp753
a(S'AATTATCTTG'
p754
I61
tp755
a(S'AATTATGTCT'
p756
I996
tp757
a(S'AATTCAAACT'
p758
I2421
tp759
a(S'AATTCGACCT'
p760
I139
tp761
a(S'AATTGCAGGG'
p762
I962
tp763
a(S'AATTGGCACA'
p764
I4269
tp765
a(S'AATTGTATGT'
p766
I3939
tp767
a(S'AATTGTTCGC'
p768
I744
tp769
a(S'AATTGTTTGG'
p770
I2988
tp771
a(S'AATTTAATGT'
p772
I2222
tp773
a(S'AATTTACGGA'
p774
I693
tp775
a(S'AATTTATGCG'
p776
I5340
tp777
a(S'AATTTCTATG'
p778
I1983
tp779
a(S'AATTTCTGGA'
p780
I3860
tp781
a(S'AATTTGCATA'
p782
I1603
tp783
a(S'AATTTGTCTA'
p784
I3899
tp785
a(S'AATTTTAATT'
p786
I956
tp787
a(S'AATTTTAATT'
p788
I2324
tp789
a(S'AATTTTGGTC'
p790
I4820
tp791
a(S'AATTTTTGCC'
p792
I2330
tp793
a(S'AATTTTTTGC'
p794
I2650
tp795
a(S'ACAAAAAGTC'
p796
I5025
tp797
a(S'ACAAAATGAG'
p798
I3511
tp799
a(S'ACAAAGTTTG'
p800
I507
tp801
a(S'ACAAATCTGC'
p802
I5327
tp803
a(S'ACAAATCTGT'
p804
I5171
tp805
a(S'ACAACCGTCC'
p806
I1694
tp807
a(S'ACAACTATTT'
p808
I1397
tp809
a(S'ACAACTCACT'
p810
I5079
tp811
a(S'ACAATACTGT'
p812
I3054
tp813
a(S'ACAATCAGAA'
p814
I3408
tp815
a(S'ACAATCCGTA'
p816
I406
tp817
a(S'ACAATGACAA'
p818
I5165
tp819
a(S'ACAATGCTAC'
p820
I4276
tp821
a(S'ACAATGTGCT'
p822
I4284
tp823
a(S'ACAATTTCTG'
p824
I3858
tp825
a(S'ACAATTTTAA'
p826
I954
tp827
a(S'ACACCAATCT'
p828
I3576
tp829
a(S'ACACCCTCCC'
p830
I3929
tp831
a(S'ACACCTAAAG'
p832
I2493
tp833
a(S'ACACGCAGGA'
p834
I4911
tp835
a(S'ACACGCCGAC'
p836
I4705
tp837
a(S'ACACTACTGG'
p838
I1295
tp839
a(S'ACACTATAGA'
p840
I4314
tp841
a(S'ACACTCTCAC'
p842
I4581
tp843
a(S'ACACTGACGT'
p844
I780
tp845
a(S'ACACTTCCTA'
p846
I4793
tp847
a(S'ACACTTTCGG'
p848
I31
tp849
a(S'ACAGAAGGAG'
p850
I3535
tp851
a(S'ACAGACACCT'
p852
I2489
tp853
a(S'ACAGACCTAT'
p854
I1797
tp855
a(S'ACAGCAGGTT'
p856
I3595
tp857
a(S'ACAGCTAATG'
p858
I4748
tp859
a(S'ACAGGCTCAT'
p860
I4546
tp861
a(S'ACAGGTAGCG'
p862
I4802
tp863
a(S'ACAGTATGCC'
p864
I4887
tp865
a(S'ACAGTGGATT'
p866
I1239
tp867
a(S'ACATCGTCAA'
p868
I2505
tp869
a(S'ACATCTATTG'
p870
I1564
tp871
a(S'ACATCTGTCA'
p872
I2583
tp873
a(S'ACATTATGGG'
p874
I1574
tp875
a(S'ACATTATTAA'
p876
I705
tp877
a(S'ACATTCAAAC'
p878
I657
tp879
a(S'ACATTCTGTG'
p880
I1809
tp881
a(S'ACATTTGGAC'
p882
I1502
tp883
a(S'ACATTTTAAA'
p884
I322
tp885
a(S'ACATTTTGTT'
p886
I290
tp887
a(S'ACATTTTTAC'
p888
I1196
tp889
a(S'ACCAAACGTC'
p890
I1760
tp891
a(S'ACCAAATCAA'
p892
I3666
tp893
a(S'ACCAAGAACG'
p894
I1616
tp895
a(S'ACCAAGCGAA'
p896
I2352
tp897
a(S'ACCAAGCTGG'
p898
I5204
tp899
a(S'ACCAAGCTGT'
p900
I5093
tp901
a(S'ACCAATAAAA'
p902
I1348
tp903
a(S'ACCAATCTTT'
p904
I3578
tp905
a(S'ACCAATGACC'
p906
I3659
tp907
a(S'ACCACATCTA'
p908
I1561
tp909
a(S'ACCACCGCCC'
p910
I4323
tp911
a(S'ACCACTAATA'
p912
I368
tp913
a(S'ACCACTCGCG'
p914
I2254
tp915
a(S'ACCAGATATT'
p916
I5235
tp917
a(S'ACCAGGTATA'
p918
I3498
tp919
a(S'ACCAGTGTTT'
p920
I2174
tp921
a(S'ACCAGTTATA'
p922
I4982
tp923
a(S'ACCATGATGT'
p924
I1646
tp925
a(S'ACCATGATTA'
p926
I2162
tp927
a(S'ACCATGCCGC'
p928
I1313
tp929
a(S'ACCATTTCAA'
p930
I1087
tp931
a(S'ACCCCAAAAA'
p932
I4440
tp933
a(S'ACCCTAAATT'
p934
I2644
tp935
a(S'ACCCTAATGA'
p936
I1442
tp937
a(S'ACCCTAATTT'
p938
I4815
tp939
a(S'ACCCTCCCAA'
p940
I3931
tp941
a(S'ACCCTCCCGA'
p942
I2697
tp943
a(S'ACCCTCGCTT'
p944
I591
tp945
a(S'ACCCTGATAC'
p946
I1340
tp947
a(S'ACCCTGATGA'
p948
I3117
tp949
a(S'ACCCTGTTTT'
p950
I1949
tp951
a(S'ACCCTTCTGA'
p952
I3996
tp953
a(S'ACCGAAGATG'
p954
I476
tp955
a(S'ACCGAGGCTA'
p956
I1432
tp957
a(S'ACCGATAACA'
p958
I3047
tp959
a(S'ACCGATATTG'
p960
I1933
tp961
a(S'ACCGATTAGA'
p962
I4602
tp963
a(S'ACCGCATCAA'
p964
I4125
tp965
a(S'ACCGCCCCGA'
p966
I4326
tp967
a(S'ACCGCCTTCT'
p968
I2121
tp969
a(S'ACCGCTACTA'
p970
I2844
tp971
a(S'ACCGCTCTCG'
p972
I528
tp973
a(S'ACCGCTTTGG'
p974
I425
tp975
a(S'ACCGTACCGA'
p976
I1427
tp977
a(S'ACCGTCAAGG'
p978
I2757
tp979
a(S'ACCGTCAGGA'
p980
I3916
tp981
a(S'ACCGTCCTTT'
p982
I1697
tp983
a(S'ACCGTTTATC'
p984
I2233
tp985
a(S'ACCTAAAGCT'
p986
I2495
tp987
a(S'ACCTATAAAC'
p988
I1801
tp989
a(S'ACCTATCCTT'
p990
I145
tp991
a(S'ACCTCTTATG'
p992
I1678
tp993
a(S'ACCTGCTATT'
p994
I4051
tp995
a(S'ACCTGTGACG'
p996
I5317
tp997
a(S'ACCTGTTTTA'
p998
I2480
tp999
a(S'ACCTTAACGC'
p1000
I1904
tp1001
a(S'ACCTTCTTGA'
p1002
I2090
tp1003
a(S'ACCTTGCGTG'
p1004
I758
tp1005
a(S'ACCTTGCTGC'
p1006
I5043
tp1007
a(S'ACCTTTCCCA'
p1008
I1040
tp1009
a(S'ACCTTTCGCC'
p1010
I183
tp1011
a(S'ACGAAAAATG'
p1012
I4341
tp1013
a(S'ACGAAAGACC'
p1014
I3491
tp1015
a(S'ACGAATTAAA'
p1016
I99
tp1017
a(S'ACGACAAATC'
p1018
I5324
tp1019
a(S'ACGACCGATT'
p1020
I4599
tp1021
a(S'ACGACGCGAC'
p1022
I5217
tp1023
a(S'ACGACTTCTA'
p1024
I1552
tp1025
a(S'ACGAGAAGAC'
p1026
I4362
tp1027
a(S'ACGAGTAACA'
p1028
I500
tp1029
a(S'ACGATTAACC'
p1030
I1333
tp1031
a(S'ACGATTCTGT'
p1032
I201
tp1033
a(S'ACGCAAAAAG'
p1034
I5253
tp1035
a(S'ACGCAATCGC'
p1036
I4837
tp1037
a(S'ACGCAGAAGA'
p1038
I798
tp1039
a(S'ACGCAGAAGT'
p1040
I19
tp1041
a(S'ACGCAGAATC'
p1042
I3725
tp1043
a(S'ACGCAGGACG'
p1044
I4913
tp1045
a(S'ACGCAGTTTT'
p1046
I4376
tp1047
a(S'ACGCCAGAAT'
p1048
I3481
tp1049
a(S'ACGCCCTCTT'
p1050
I4405
tp1051
a(S'ACGCCGAAGC'
p1052
I2308
tp1053
a(S'ACGCCGACTG'
p1054
I4707
tp1055
a(S'ACGCCGCTAA'
p1056
I2593
tp1057
a(S'ACGCCGGATT'
p1058
I3363
tp1059
a(S'ACGCCGGGCA'
p1060
I2796
tp1061
a(S'ACGCCGTTCA'
p1062
I5225
tp1063
a(S'ACGCCGTTGG'
p1064
I1133
tp1065
a(S'ACGCGACGCC'
p1066
I5220
tp1067
a(S'ACGCGCAGGA'
p1068
I769
tp1069
a(S'ACGCGTACTT'
p1070
I2145
tp1071
a(S'ACGCGTTGGA'
p1072
I220
tp1073
a(S'ACGCTAAAGG'
p1074
I1910
tp1075
a(S'ACGCTGACAA'
p1076
I1688
tp1077
a(S'ACGCTGATTA'
p1078
I4011
tp1079
a(S'ACGCTGGACT'
p1080
I572
tp1081
a(S'ACGCTTTTTC'
p1082
I4920
tp1083
a(S'ACGGAAAACA'
p1084
I698
tp1085
a(S'ACGGAGTGCT'
p1086
I5183
tp1087
a(S'ACGGCCATAA'
p1088
I4203
tp1089
a(S'ACGGCCTGTC'
p1090
I665
tp1091
a(S'ACGGCTGGTC'
p1092
I3641
tp1093
a(S'ACGGTAAAGC'
p1094
I3873
tp1095
a(S'ACGGTTAATG'
p1096
I2535
tp1097
a(S'ACGGTTACGC'
p1098
I4370
tp1099
a(S'ACGTCCTTCC'
p1100
I2782
tp1101
a(S'ACGTCGTTAG'
p1102
I1765
tp1103
a(S'ACGTGATTAC'
p1104
I1623
tp1105
a(S'ACGTGCGGAA'
p1106
I826
tp1107
a(S'ACGTGCGTCA'
p1108
I810
tp1109
a(S'ACGTGGCCTT'
p1110
I4871
tp1111
a(S'ACGTTAACAA'
p1112
I5019
tp1113
a(S'ACGTTATATT'
p1114
I2514
tp1115
a(S'ACGTTCGTCA'
p1116
I258
tp1117
a(S'ACGTTCGTGA'
p1118
I4224
tp1119
a(S'ACGTTCTGGC'
p1120
I864
tp1121
a(S'ACGTTCTGGT'
p1122
I4930
tp1123
a(S'ACGTTCTTAC'
p1124
I786
tp1125
a(S'ACGTTGCAGG'
p1126
I3188
tp1127
a(S'ACGTTGGCTG'
p1128
I4589
tp1129
a(S'ACGTTTATGG'
p1130
I1226
tp1131
a(S'ACGTTTATGT'
p1132
I2809
tp1133
a(S'ACGTTTCCAG'
p1134
I415
tp1135
a(S'ACGTTTTGGC'
p1136
I5301
tp1137
a(S'ACTAAAAACC'
p1138
I5086
tp1139
a(S'ACTAAAATGC'
p1140
I3392
tp1141
a(S'ACTAAAGAGA'
p1142
I1888
tp1143
a(S'ACTAAAGGCA'
p1144
I907
tp1145
a(S'ACTAAATGCC'
p1146
I2850
tp1147
a(S'ACTAACGATT'
p1148
I197
tp1149
a(S'ACTAATAGGT'
p1150
I371
tp1151
a(S'ACTACCCTCC'
p1152
I2694
tp1153
a(S'ACTACTCCGG'
p1154
I1096
tp1155
a(S'ACTACTGCTT'
p1156
I85
tp1157
a(S'ACTACTGGTT'
p1158
I1297
tp1159
a(S'ACTATAGACC'
p1160
I4316
tp1161
a(S'ACTATCTGAG'
p1162
I344
tp1163
a(S'ACTATGAAAT'
p1164
I4493
tp1165
a(S'ACTATGTTTA'
p1166
I1846
tp1167
a(S'ACTATTGACG'
p1168
I2775
tp1169
a(S'ACTATTTTAA'
p1170
I1400
tp1171
a(S'ACTATTTTCG'
p1172
I4644
tp1173
a(S'ACTCAAAAAG'
p1174
I3443
tp1175
a(S'ACTCAAGCTC'
p1176
I3629
tp1177
a(S'ACTCACTAAA'
p1178
I5082
tp1179
a(S'ACTCCAGCTT'
p1180
I2463
tp1181
a(S'ACTCCGGTTA'
p1182
I1099
tp1183
a(S'ACTCCTCTCC'
p1184
I1276
tp1185
a(S'ACTCCTTCGA'
p1186
I1118
tp1187
a(S'ACTCGCAAGG'
p1188
I3683
tp1189
a(S'ACTCGCGATT'
p1190
I2257
tp1191
a(S'ACTCGTGATT'
p1192
I3278
tp1193
a(S'ACTCTACTGT'
p1194
I1184
tp1195
a(S'ACTCTCACGT'
p1196
I4583
tp1197
a(S'ACTCTTGCGC'
p1198
I1855
tp1199
a(S'ACTCTTTCTC'
p1200
I4079
tp1201
a(S'ACTGAACAAT'
p1202
I401
tp1203
a(S'ACTGACCAAA'
p1204
I1756
tp1205
a(S'ACTGACCAAG'
p1206
I1612
tp1207
a(S'ACTGACCGCT'
p1208
I524
tp1209
a(S'ACTGACGCAG'
p1210
I794
tp1211
a(S'ACTGACGCGT'
p1212
I216
tp1213
a(S'ACTGACGTTC'
p1214
I782
tp1215
a(S'ACTGAGAAGT'
p1216
I4250
tp1217
a(S'ACTGAGCTTT'
p1218
I1531
tp1219
a(S'ACTGATGCTG'
p1220
I3791
tp1221
a(S'ACTGCAAAGG'
p1222
I3764
tp1223
a(S'ACTGCCTATG'
p1224
I2706
tp1225
a(S'ACTGCGACTA'
p1226
I1882
tp1227
a(S'ACTGCTATCA'
p1228
I4713
tp1229
a(S'ACTGCTCCGC'
p1230
I1510
tp1231
a(S'ACTGCTCGCG'
p1232
I3548
tp1233
a(S'ACTGCTGGCG'
p1234
I118
tp1235
a(S'ACTGCTTGTT'
p1236
I88
tp1237
a(S'ACTGGACAAT'
p1238
I3403
tp1239
a(S'ACTGGCGCCG'
p1240
I1015
tp1241
a(S'ACTGGTTATA'
p1242
I1300
tp1243
a(S'ACTGGTTTAG'
p1244
I271
tp1245
a(S'ACTGTAGACA'
p1246
I1189
tp1247
a(S'ACTGTAGCCG'
p1248
I5291
tp1249
a(S'ACTGTAGGCA'
p1250
I3059
tp1251
a(S'ACTGTGTGAC'
p1252
I2767
tp1253
a(S'ACTGTTAACA'
p1254
I1288
tp1255
a(S'ACTTAAGTGA'
p1256
I2912
tp1257
a(S'ACTTACCAAG'
p1258
I5200
tp1259
a(S'ACTTAGTTCA'
p1260
I3708
tp1261
a(S'ACTTATACCG'
p1262
I1927
tp1263
a(S'ACTTATTCGC'
p1264
I2151
tp1265
a(S'ACTTCACGCC'
p1266
I3476
tp1267
a(S'ACTTCATGCA'
p1268
I1631
tp1269
a(S'ACTTCCCAAG'
p1270
I5107
tp1271
a(S'ACTTCCTACA'
p1272
I4795
tp1273
a(S'ACTTCGGGAT'
p1274
I5145
tp1275
a(S'ACTTCGTGAT'
p1276
I2275
tp1277
a(S'ACTTCTACCA'
p1278
I1555
tp1279
a(S'ACTTCTGCCG'
p1280
I3203
tp1281
a(S'ACTTCTGTTA'
p1282
I2454
tp1283
a(S'ACTTCTTGAA'
p1284
I3175
tp1285
a(S'ACTTGAGGAT'
p1286
I985
tp1287
a(S'ACTTGATATT'
p1288
I4300
tp1289
a(S'ACTTGCCGCC'
p1290
I1967
tp1291
a(S'ACTTGGAACA'
p1292
I3851
tp1293
a(S'ACTTGGTGGC'
p1294
I3241
tp1295
a(S'ACTTGTCATG'
p1296
I1707
tp1297
a(S'ACTTTACCGC'
p1298
I2839
tp1299
a(S'ACTTTATGCG'
p1300
I4782
tp1301
a(S'ACTTTCGGAT'
p1302
I33
tp1303
a(S'ACTTTGAGCG'
p1304
I4026
tp1305
a(S'ACTTTGCGAC'
p1306
I175
tp1307
a(S'ACTTTGTGGG'
p1308
I579
tp1309
a(S'ACTTTTATTT'
p1310
I2403
tp1311
a(S'ACTTTTTATG'
p1312
I1204
tp1313
a(S'ACTTTTTTTC'
p1314
I2428
tp1315
a(S'AGAAAACGTG'
p1316
I805
tp1317
a(S'AGAAAATTCG'
p1318
I135
tp1319
a(S'AGAAAGAGAT'
p1320
I3414
tp1321
a(S'AGAAAGGTAT'
p1322
I4449
tp1323
a(S'AGAAATCATG'
p1324
I382
tp1325
a(S'AGAAATGACT'
p1326
I3676
tp1327
a(S'AGAACGAGAA'
p1328
I4359
tp1329
a(S'AGAACGCAAA'
p1330
I5250
tp1331
a(S'AGAACGCGTA'
p1332
I2142
tp1333
a(S'AGAACGTGAT'
p1334
I1620
tp1335
a(S'AGAAGAAAAC'
p1336
I802
tp1337
a(S'AGAAGACGGT'
p1338
I4365
tp1339
a(S'AGAAGCTCTT'
p1340
I165
tp1341
a(S'AGAAGCTGTT'
p1342
I5115
tp1343
a(S'AGAAGGAGTC'
p1344
I3537
tp1345
a(S'AGAAGTGGCT'
p1346
I235
tp1347
a(S'AGAAGTTAAC'
p1348
I23
tp1349
a(S'AGAAGTTAAT'
p1350
I4254
tp1351
a(S'AGAAGTTTAA'
p1352
I2024
tp1353
a(S'AGAATACGAA'
p1354
I3486
tp1355
a(S'AGAATCAAAA'
p1356
I3375
tp1357
a(S'AGAATCAGAA'
p1358
I5126
tp1359
a(S'AGAATCAGCG'
p1360
I3729
tp1361
a(S'AGAATGAGCC'
p1362
I5132
tp1363
a(S'AGAATGGAAC'
p1364
I5071
tp1365
a(S'AGACACCTAA'
p1366
I2491
tp1367
a(S'AGACATTTTT'
p1368
I1194
tp1369
a(S'AGACCACCGC'
p1370
I4321
tp1371
a(S'AGACCAGGTA'
p1372
I3496
tp1373
a(S'AGACCGCTTT'
p1374
I423
tp1375
a(S'AGACCTATAA'
p1376
I1799
tp1377
a(S'AGACGGTAAA'
p1378
I3871
tp1379
a(S'AGACGGTTAC'
p1380
I4368
tp1381
a(S'AGACTCAAAA'
p1382
I3441
tp1383
a(S'AGACTGAGCT'
p1384
I1529
tp1385
a(S'AGACTTTTAT'
p1386
I2401
tp1387
a(S'AGAGAACGAG'
p1388
I4357
tp1389
a(S'AGAGAGATGA'
p1390
I5261
tp1391
a(S'AGAGATGAGA'
p1392
I5263
tp1393
a(S'AGAGATTATT'
p1394
I2891
tp1395
a(S'AGAGATTCAG'
p1396
I1893
tp1397
a(S'AGAGATTCTC'
p1398
I306
tp1399
a(S'AGAGATTCTG'
p1400
I4144
tp1401
a(S'AGAGATTGCC'
p1402
I3418
tp1403
a(S'AGAGATTGCT'
p1404
I3451
tp1405
a(S'AGAGCGTGGA'
p1406
I332
tp1407
a(S'AGAGCTTACT'
p1408
I3385
tp1409
a(S'AGAGGCGTTT'
p1410
I4609
tp1411
a(S'AGAGGCTTTG'
p1412
I4508
tp1413
a(S'AGATATGAGT'
p1414
I279
tp1415
a(S'AGATATGGAC'
p1416
I5035
tp1417
a(S'AGATATTGAA'
p1418
I5238
tp1419
a(S'AGATGAGATT'
p1420
I5265
tp1421
a(S'AGATGATGCT'
p1422
I1461
tp1423
a(S'AGATGATTTC'
p1424
I481
tp1425
a(S'AGATGCAAAA'
p1426
I3429
tp1427
a(S'AGATGCTTGC'
p1428
I3519
tp1429
a(S'AGATGGACGC'
p1430
I1127
tp1431
a(S'AGATGGATAA'
p1432
I4116
tp1433
a(S'AGATGGATAC'
p1434
I2575
tp1435
a(S'AGATTATGCG'
p1436
I3609
tp1437
a(S'AGATTATTTG'
p1438
I2893
tp1439
a(S'AGATTCAGTA'
p1440
I1895
tp1441
a(S'AGATTCTCTT'
p1442
I308
tp1443
a(S'AGATTCTGTC'
p1444
I4146
tp1445
a(S'AGATTGAGGC'
p1446
I5270
tp1447
a(S'AGATTGAGTG'
p1448
I2288
tp1449
a(S'AGATTGCCGA'
p1450
I3420
tp1451
a(S'AGATTGCTGA'
p1452
I2033
tp1453
a(S'AGATTGCTGG'
p1454
I3453
tp1455
a(S'AGATTGCTGG'
p1456
I4475
tp1457
a(S'AGATTGGTCG'
p1458
I1070
tp1459
a(S'AGCAAACGCA'
p1460
I3720
tp1461
a(S'AGCAACAGCA'
p1462
I3591
tp1463
a(S'AGCAGAACGC'
p1464
I5247
tp1465
a(S'AGCAGATGGA'
p1466
I4113
tp1467
a(S'AGCAGGAATT'
p1468
I75
tp1469
a(S'AGCAGGTTTC'
p1470
I3597
tp1471
a(S'AGCATGGCAC'
p1472
I1838
tp1473
a(S'AGCATTTGTT'
p1474
I1364
tp1475
a(S'AGCCACTTAA'
p1476
I2908
tp1477
a(S'AGCCGACGTT'
p1478
I5296
tp1479
a(S'AGCCGCAACT'
p1480
I5138
tp1481
a(S'AGCCGCCTCC'
p1482
I3010
tp1483
a(S'AGCCGCTGAA'
p1484
I736
tp1485
a(S'AGCCGCTTAA'
p1486
I4968
tp1487
a(S'AGCCGTTGCG'
p1488
I893
tp1489
a(S'AGCGAAGCGC'
p1490
I2356
tp1491
a(S'AGCGCCGTGG'
p1492
I1410
tp1493
a(S'AGCGCGGTAG'
p1494
I2361
tp1495
a(S'AGCGGTAAAA'
p1496
I2315
tp1497
a(S'AGCGGTATGG'
p1498
I3735
tp1499
a(S'AGCGTAAAGG'
p1500
I917
tp1501
a(S'AGCGTATCGA'
p1502
I4032
tp1503
a(S'AGCGTATGCC'
p1504
I1025
tp1505
a(S'AGCGTCCGGT'
p1506
I723
tp1507
a(S'AGCGTGCTGG'
p1508
I3324
tp1509
a(S'AGCGTGGATT'
p1510
I334
tp1511
a(S'AGCGTTACCA'
p1512
I1640
tp1513
a(S'AGCGTTGACC'
p1514
I4808
tp1515
a(S'AGCGTTTGAT'
p1516
I4524
tp1517
a(S'AGCTAAAGAA'
p1518
I5065
tp1519
a(S'AGCTAATGGC'
p1520
I4750
tp1521
a(S'AGCTACATCG'
p1522
I2501
tp1523
a(S'AGCTACCAGT'
p1524
I4978
tp1525
a(S'AGCTCAAACG'
p1526
I3634
tp1527
a(S'AGCTCATTCA'
p1528
I444
tp1529
a(S'AGCTCGAGAA'
p1530
I159
tp1531
a(S'AGCTCTTACT'
p1532
I168
tp1533
a(S'AGCTCTTGGA'
p1534
I4134
tp1535
a(S'AGCTGATGGT'
p1536
I3880
tp1537
a(S'AGCTGCTTAT'
p1538
I1590
tp1539
a(S'AGCTGGCTGC'
p1540
I4392
tp1541
a(S'AGCTGGGTTA'
p1542
I5208
tp1543
a(S'AGCTGGTAAA'
p1544
I3163
tp1545
a(S'AGCTGGTTCT'
p1546
I2443
tp1547
a(S'AGCTGTCGCT'
p1548
I5097
tp1549
a(S'AGCTGTTCAG'
p1550
I5118
tp1551
a(S'AGCTGTTGCC'
p1552
I3838
tp1553
a(S'AGCTTAATCA'
p1554
I1451
tp1555
a(S'AGCTTAATGC'
p1556
I3309
tp1557
a(S'AGCTTACTAA'
p1558
I3387
tp1559
a(S'AGCTTCTTCG'
p1560
I2468
tp1561
a(S'AGCTTGCAAA'
p1562
I4859
tp1563
a(S'AGCTTTCTCG'
p1564
I1535
tp1565
a(S'AGGAAACACT'
p1566
I775
tp1567
a(S'AGGAAAGGAT'
p1568
I3268
tp1569
a(S'AGGAAATAAC'
p1570
I3908
tp1571
a(S'AGGAACCGCC'
p1572
I2117
tp1573
a(S'AGGAATTACT'
p1574
I78
tp1575
a(S'AGGACGCTTT'
p1576
I4917
tp1577
a(S'AGGACTGGTT'
p1578
I268
tp1579
a(S'AGGACTGTGT'
p1580
I2764
tp1581
a(S'AGGACTTCTT'
p1582
I3172
tp1583
a(S'AGGAGAAGTG'
p1584
I232
tp1585
a(S'AGGAGCTAAA'
p1586
I5062
tp1587
a(S'AGGAGTCTAC'
p1588
I3540
tp1589
a(S'AGGAGTGATG'
p1590
I835
tp1591
a(S'AGGAGTTTAA'
p1592
I2382
tp1593
a(S'AGGATAAATT'
p1594
I990
tp1595
a(S'AGGATACTCG'
p1596
I3273
tp1597
a(S'AGGATATTCG'
p1598
I4416
tp1599
a(S'AGGATATTTC'
p1600
I3771
tp1601
a(S'AGGATGAGTG'
p1602
I4461
tp1603
a(S'AGGATGGTGT'
p1604
I1259
tp1605
a(S'AGGATGTTTT'
p1606
I1994
tp1607
a(S'AGGATTGACA'
p1608
I3922
tp1609
a(S'AGGCAAGCGT'
p1610
I912
tp1611
a(S'AGGCATGGGT'
p1612
I3064
tp1613
a(S'AGGCCAGTTT'
p1614
I1773
tp1615
a(S'AGGCCGCCCC'
p1616
I3126
tp1617
a(S'AGGCCTCCAC'
p1618
I4485
tp1619
a(S'AGGCGCTCGT'
p1620
I924
tp1621
a(S'AGGCGCTGAA'
p1622
I685
tp1623
a(S'AGGCGGTCAA'
p1624
I2998
tp1625
a(S'AGGCGTTTTA'
p1626
I4611
tp1627
a(S'AGGCTAACCC'
p1628
I1436
tp1629
a(S'AGGCTAATGA'
p1630
I4692
tp1631
a(S'AGGCTCATGC'
p1632
I4548
tp1633
a(S'AGGCTCTAAT'
p1634
I3100
tp1635
a(S'AGGCTCTTAA'
p1636
I4041
tp1637
a(S'AGGCTGCTTC'
p1638
I4212
tp1639
a(S'AGGCTGGCAC'
p1640
I3195
tp1641
a(S'AGGCTGGGAA'
p1642
I5276
tp1643
a(S'AGGCTTCCCA'
p1644
I2100
tp1645
a(S'AGGCTTCTGC'
p1646
I453
tp1647
a(S'AGGCTTGCGT'
p1648
I555
tp1649
a(S'AGGCTTGTGG'
p1650
I4062
tp1651
a(S'AGGCTTTGCT'
p1652
I4510
tp1653
a(S'AGGCTTTTTT'
p1654
I3970
tp1655
a(S'AGGGCGTTGA'
p1656
I4167
tp1657
a(S'AGGGGACGAA'
p1658
I4336
tp1659
a(S'AGGGGCTTCG'
p1660
I968
tp1661
a(S'AGGGGTTGAC'
p1662
I2344
tp1663
a(S'AGGGTCAGTG'
p1664
I2042
tp1665
a(S'AGGGTCGCAA'
p1666
I4683
tp1667
a(S'AGGGTTATTT'
p1668
I1376
tp1669
a(S'AGGTAAAAAA'
p1670
I855
tp1671
a(S'AGGTAAAACC'
p1672
I1671
tp1673
a(S'AGGTAAGAAA'
p1674
I377
tp1675
a(S'AGGTACGTTG'
p1676
I3184
tp1677
a(S'AGGTACTAAA'
p1678
I903
tp1679
a(S'AGGTAGCGTT'
p1680
I4804
tp1681
a(S'AGGTATATGC'
p1682
I3501
tp1683
a(S'AGGTATTAAG'
p1684
I4453
tp1685
a(S'AGGTCTAGGA'
p1686
I5056
tp1687
a(S'AGGTGAGCCG'
p1688
I4963
tp1689
a(S'AGGTGATGTG'
p1690
I3031
tp1691
a(S'AGGTGATTTA'
p1692
I2921
tp1693
a(S'AGGTGCTTTG'
p1694
I1917
tp1695
a(S'AGGTGGTCAA'
p1696
I945
tp1697
a(S'AGGTTAAATT'
p1698
I2216
tp1699
a(S'AGGTTAGTGC'
p1700
I3690
tp1701
a(S'AGGTTATAAC'
p1702
I2300
tp1703
a(S'AGGTTATTAA'
p1704
I2881
tp1705
a(S'AGGTTGACTT'
p1706
I3702
tp1707
a(S'AGGTTGTTTC'
p1708
I2605
tp1709
a(S'AGGTTTCCGA'
p1710
I3600
tp1711
a(S'AGGTTTTCTG'
p1712
I2369
tp1713
a(S'AGTAACAAAG'
p1714
I503
tp1715
a(S'AGTACCTTAA'
p1716
I1901
tp1717
a(S'AGTATAATTA'
p1718
I4431
tp1719
a(S'AGTATGCCCA'
p1720
I4889
tp1721
a(S'AGTATGGTAC'
p1722
I4740
tp1723
a(S'AGTATTTTAC'
p1724
I3651
tp1725
a(S'AGTATTTTTG'
p1726
I4722
tp1727
a(S'AGTCAAGTTA'
p1728
I392
tp1729
a(S'AGTCACATTT'
p1730
I286
tp1731
a(S'AGTCAGATAT'
p1732
I5031
tp1733
a(S'AGTCAGGTTA'
p1734
I2212
tp1735
a(S'AGTCCGATGC'
p1736
I352
tp1737
a(S'AGTCCGTTCA'
p1738
I2186
tp1739
a(S'AGTCGAAAAA'
p1740
I53
tp1741
a(S'AGTCGGCGAC'
p1742
I3468
tp1743
a(S'AGTCTACTGC'
p1744
I3543
tp1745
a(S'AGTCTGCCGC'
p1746
I3252
tp1747
a(S'AGTCTTCTTC'
p1748
I2677
tp1749
a(S'AGTGAGGTGA'
p1750
I2917
tp1751
a(S'AGTGATGTAA'
p1752
I838
tp1753
a(S'AGTGCTGAGG'
p1754
I3695
tp1755
a(S'AGTGCTTAAT'
p1756
I5187
tp1757
a(S'AGTGGAATAG'
p1758
I2204
tp1759
a(S'AGTGGACTGC'
p1760
I113
tp1761
a(S'AGTGGATTAA'
p1762
I1241
tp1763
a(S'AGTGGCTTAA'
p1764
I238
tp1765
a(S'AGTGGTATCG'
p1766
I2048
tp1767
a(S'AGTGTGAGGT'
p1768
I2294
tp1769
a(S'AGTGTTCAAG'
p1770
I4467
tp1771
a(S'AGTGTTTCCA'
p1772
I2177
tp1773
a(S'AGTTAAATAG'
p1774
I4851
tp1775
a(S'AGTTAACACT'
p1776
I26
tp1777
a(S'AGTTAATGGA'
p1778
I4257
tp1779
a(S'AGTTACTGAA'
p1780
I397
tp1781
a(S'AGTTACTGTA'
p1782
I5287
tp1783
a(S'AGTTATATGG'
p1784
I4985
tp1785
a(S'AGTTCATCAG'
p1786
I3712
tp1787
a(S'AGTTCATGAA'
p1788
I1250
tp1789
a(S'AGTTCGATAA'
p1790
I4176
tp1791
a(S'AGTTCGCTAC'
p1792
I4903
tp1793
a(S'AGTTGCTTGA'
p1794
I3222
tp1795
a(S'AGTTGTTGCA'
p1796
I2195
tp1797
a(S'AGTTTAAGAT'
p1798
I2027
tp1799
a(S'AGTTTAATCA'
p1800
I2385
tp1801
a(S'AGTTTATTGC'
p1802
I615
tp1803
a(S'AGTTTGACGG'
p1804
I2529
tp1805
a(S'AGTTTGGATT'
p1806
I511
tp1807
a(S'AGTTTGTATC'
p1808
I4236
tp1809
a(S'AGTTTTATCG'
p1810
I1
tp1811
a(S'AGTTTTCTGG'
p1812
I1778
tp1813
a(S'AGTTTTGCCG'
p1814
I4380
tp1815
a(S'AGTTTTGTTT'
p1816
I3137
tp1817
a(S'ATAAAAATGA'
p1818
I5357
tp1819
a(S'ATAAAAGATT'
p1820
I2283
tp1821
a(S'ATAAAATCCC'
p1822
I1352
tp1823
a(S'ATAAACATTC'
p1824
I1805
tp1825
a(S'ATAAAGCAGG'
p1826
I71
tp1827
a(S'ATAAAGCTGT'
p1828
I3834
tp1829
a(S'ATAAAGGAAA'
p1830
I3264
tp1831
a(S'ATAAATTATG'
p1832
I993
tp1833
a(S'ATAACAACTA'
p1834
I1394
tp1835
a(S'ATAACAATAC'
p1836
I3051
tp1837
a(S'ATAACACTAT'
p1838
I4311
tp1839
a(S'ATAACCGCAT'
p1840
I4122
tp1841
a(S'ATAACCGTCA'
p1842
I3913
tp1843
a(S'ATAACGCCGA'
p1844
I2305
tp1845
a(S'ATAACGTTTA'
p1846
I2806
tp1847
a(S'ATAAGCAGAT'
p1848
I4110
tp1849
a(S'ATAAGCTGGT'
p1850
I2440
tp1851
a(S'ATAAGGCTGC'
p1852
I4209
tp1853
a(S'ATAAGTTGCT'
p1854
I3219
tp1855
a(S'ATAATCCCAA'
p1856
I4623
tp1857
a(S'ATAATGGTGA'
p1858
I4182
tp1859
a(S'ATAATTACCC'
p1860
I4434
tp1861
a(S'ATAATTCAAA'
p1862
I2419
tp1863
a(S'ATACATCTGT'
p1864
I2581
tp1865
a(S'ATACCAATAA'
p1866
I1346
tp1867
a(S'ATACCCTCGC'
p1868
I589
tp1869
a(S'ATACCGATAT'
p1870
I1931
tp1871
a(S'ATACCGTCAA'
p1872
I2755
tp1873
a(S'ATACGAAAGA'
p1874
I3489
tp1875
a(S'ATACGTGGCC'
p1876
I4869
tp1877
a(S'ATACGTTAAC'
p1878
I5017
tp1879
a(S'ATACTCGTGA'
p1880
I3276
tp1881
a(S'ATACTGACCA'
p1882
I1610
tp1883
a(S'ATACTGTAGG'
p1884
I3057
tp1885
a(S'ATACTTGGAA'
p1886
I3849
tp1887
a(S'ATAGACCACC'
p1888
I4319
tp1889
a(S'ATAGCTTGCA'
p1890
I4857
tp1891
a(S'ATAGGTAAGA'
p1892
I375
tp1893
a(S'ATAGTCAGGT'
p1894
I2210
tp1895
a(S'ATAGTTTGAC'
p1896
I2527
tp1897
a(S'ATATCTATAA'
p1898
I1388
tp1899
a(S'ATATGAGTCA'
p1900
I281
tp1901
a(S'ATATGCACAA'
p1902
I3505
tp1903
a(S'ATATGCTTGG'
p1904
I247
tp1905
a(S'ATATGGACCT'
p1906
I5037
tp1907
a(S'ATATGGCTGT'
p1908
I4989
tp1909
a(S'ATATGTATGT'
p1910
I4191
tp1911
a(S'ATATTAATAA'
p1912
I4305
tp1913
a(S'ATATTCAAAC'
p1914
I1007
tp1915
a(S'ATATTCGCGA'
p1916
I4419
tp1917
a(S'ATATTGAAGC'
p1918
I5240
tp1919
a(S'ATATTGACCA'
p1920
I1307
tp1921
a(S'ATATTGCTGG'
p1922
I1937
tp1923
a(S'ATATTGCTTT'
p1924
I2626
tp1925
a(S'ATATTGGCGC'
p1926
I3753
tp1927
a(S'ATATTGGTCG'
p1928
I4656
tp1929
a(S'ATATTTCTAA'
p1930
I3774
tp1931
a(S'ATATTTCTGA'
p1932
I41
tp1933
a(S'ATATTTTGAT'
p1934
I2519
tp1935
a(S'ATATTTTTCA'
p1936
I3816
tp1937
a(S'ATCAAAAAGA'
p1938
I3378
tp1939
a(S'ATCAAAGAAA'
p1940
I3671
tp1941
a(S'ATCAACAGAA'
p1942
I3531
tp1943
a(S'ATCAACTAAC'
p1944
I193
tp1945
a(S'ATCAAGATGA'
p1946
I1457
tp1947
a(S'ATCAAGCTCT'
p1948
I4130
tp1949
a(S'ATCACCTTCT'
p1950
I2087
tp1951
a(S'ATCAGAAAGA'
p1952
I3411
tp1953
a(S'ATCAGAATGA'
p1954
I5129
tp1955
a(S'ATCAGCAAAC'
p1956
I3717
tp1957
a(S'ATCAGCGGTA'
p1958
I3732
tp1959
a(S'ATCAGGTTAT'
p1960
I2878
tp1961
a(S'ATCAGGTTGT'
p1962
I2602
tp1963
a(S'ATCAGTATTT'
p1964
I4719
tp1965
a(S'ATCATGACTT'
p1966
I2269
tp1967
a(S'ATCATGAGTC'
p1968
I386
tp1969
a(S'ATCATGGAAG'
p1970
I677
tp1971
a(S'ATCATGTTTC'
p1972
I2391
tp1973
a(S'ATCCAACCTG'
p1974
I5374
tp1975
a(S'ATCCAACTTA'
p1976
I5195
tp1977
a(S'ATCCCAATGC'
p1978
I4626
tp1979
a(S'ATCCCCAATG'
p1980
I4090
tp1981
a(S'ATCCCGTCAA'
p1982
I648
tp1983
a(S'ATCCCTAAGC'
p1984
I1357
tp1985
a(S'ATCCGTACGT'
p1986
I409
tp1987
a(S'ATCCTTGCGC'
p1988
I149
tp1989
a(S'ATCCTTTGAA'
p1990
I2722
tp1991
a(S'ATCGAAGTGG'
p1992
I108
tp1993
a(S'ATCGAGGCTC'
p1994
I4037
tp1995
a(S'ATCGCAATCT'
p1996
I2240
tp1997
a(S'ATCGCAGTTC'
p1998
I4898
tp1999
a(S'ATCGCCGCCA'
p2000
I4842
tp2001
a(S'ATCGCGTAGA'
p2002
I4501
tp2003
a(S'ATCGCTGGCG'
p2004
I1108
tp2005
a(S'ATCGCTTCCA'
p2006
I7
tp2007
a(S'ATCGTCAACG'
p2008
I2507
tp2009
a(S'ATCGTCACGT'
p2010
I1220
tp2011
a(S'ATCGTTATGC'
p2012
I2054
tp2013
a(S'ATCGTTTTTG'
p2014
I4571
tp2015
a(S'ATCTATAACA'
p2016
I1390
tp2017
a(S'ATCTATTGAC'
p2018
I1566
tp2019
a(S'ATCTCAAAAA'
p2020
I1493
tp2021
a(S'ATCTCTGGGC'
p2022
I1724
tp2023
a(S'ATCTGAGTCC'
p2024
I347
tp2025
a(S'ATCTGCCATT'
p2026
I3088
tp2027
a(S'ATCTGCCGAC'
p2028
I2246
tp2029
a(S'ATCTGCTCAA'
p2030
I5331
tp2031
a(S'ATCTGGCTAT'
p2032
I1734
tp2033
a(S'ATCTGTCAAC'
p2034
I2585
tp2035
a(S'ATCTGTCCAC'
p2036
I5175
tp2037
a(S'ATCTGTTACT'
p2038
I4243
tp2039
a(S'ATCTTGATAA'
p2040
I65
tp2041
a(S'ATCTTGCTGC'
p2042
I3288
tp2043
a(S'ATCTTGGAGG'
p2044
I3963
tp2045
a(S'ATCTTGGCTT'
p2046
I1049
tp2047
a(S'ATCTTTCCAA'
p2048
I3582
tp2049
a(S'ATGAAAATGC'
p2050
I5153
tp2051
a(S'ATGAAATCGC'
p2052
I4496
tp2053
a(S'ATGAAGGATG'
p2054
I1255
tp2055
a(S'ATGAAGGATG'
p2056
I1990
tp2057
a(S'ATGAATGCAA'
p2058
I4532
tp2059
a(S'ATGAATTGGC'
p2060
I4266
tp2061
a(S'ATGACAAATC'
p2062
I5168
tp2063
a(S'ATGACCAAAT'
p2064
I3663
tp2065
a(S'ATGACCAGTG'
p2066
I2171
tp2067
a(S'ATGACCTTTC'
p2068
I1037
tp2069
a(S'ATGACGACTT'
p2070
I1549
tp2071
a(S'ATGACGCAGA'
p2072
I16
tp2073
a(S'ATGACGCTGA'
p2074
I1685
tp2075
a(S'ATGACTCGCA'
p2076
I3680
tp2077
a(S'ATGACTTCGT'
p2078
I2272
tp2079
a(S'ATGAGAAAAT'
p2080
I132
tp2081
a(S'ATGAGACTCA'
p2082
I3438
tp2083
a(S'ATGAGATGCT'
p2084
I3516
tp2085
a(S'ATGAGATTGA'
p2086
I5267
tp2087
a(S'ATGAGCCGCA'
p2088
I5135
tp2089
a(S'ATGAGCTTAA'
p2090
I1448
tp2091
a(S'ATGAGGAGAA'
p2092
I229
tp2093
a(S'ATGAGGCCGC'
p2094
I3123
tp2095
a(S'ATGAGTATAA'
p2096
I4428
tp2097
a(S'ATGAGTCAAG'
p2098
I389
tp2099
a(S'ATGAGTCACA'
p2100
I283
tp2101
a(S'ATGAGTCGAA'
p2102
I50
tp2103
a(S'ATGAGTGTTC'
p2104
I4464
tp2105
a(S'ATGAGTTTGT'
p2106
I4233
tp2107
a(S'ATGATAATCC'
p2108
I4620
tp2109
a(S'ATGATGCTCG'
p2110
I1463
tp2111
a(S'ATGATGGTGG'
p2112
I2740
tp2113
a(S'ATGATGTTAT'
p2114
I1649
tp2115
a(S'ATGATGTTGA'
p2116
I1742
tp2117
a(S'ATGATGTTTA'
p2118
I2713
tp2119
a(S'ATGATTATGA'
p2120
I2165
tp2121
a(S'ATGATTCACA'
p2122
I4698
tp2123
a(S'ATGATTGGCG'
p2124
I5363
tp2125
a(S'ATGATTTCGA'
p2126
I483
tp2127
a(S'ATGCAAAATG'
p2128
I3431
tp2129
a(S'ATGCAACTGG'
p2130
I3398
tp2131
a(S'ATGCAATGCG'
p2132
I4536
tp2133
a(S'ATGCACAAAA'
p2134
I3507
tp2135
a(S'ATGCAGCGTT'
p2136
I1636
tp2137
a(S'ATGCAGGGCG'
p2138
I4163
tp2139
a(S'ATGCCACTCC'
p2140
I1271
tp2141
a(S'ATGCCCATCG'
p2142
I4892
tp2143
a(S'ATGCCGACCC'
p2144
I2638
tp2145
a(S'ATGCCGCATG'
p2146
I1030
tp2147
a(S'ATGCCGCGGA'
p2148
I2855
tp2149
a(S'ATGCCGCTTT'
p2150
I1316
tp2151
a(S'ATGCCTCCAA'
p2152
I3953
tp2153
a(S'ATGCCTGACC'
p2154
I1420
tp2155
a(S'ATGCGACAGG'
p2156
I4541
tp2157
a(S'ATGCGCCAAA'
p2158
I3614
tp2159
a(S'ATGCGCCTTC'
p2160
I2060
tp2161
a(S'ATGCGCGCTT'
p2162
I5345
tp2163
a(S'ATGCGCTCTA'
p2164
I1714
tp2165
a(S'ATGCGGACAC'
p2166
I4787
tp2167
a(S'ATGCGGTGCA'
p2168
I4773
tp2169
a(S'ATGCTAAAGG'
p2170
I4956
tp2171
a(S'ATGCTAATTT'
p2172
I1598
tp2173
a(S'ATGCTACAAT'
p2174
I4279
tp2175
a(S'ATGCTCACAA'
p2176
I5159
tp2177
a(S'ATGCTCGTTA'
p2178
I1466
tp2179
a(S'ATGCTGATGG'
p2180
I4554
tp2181
a(S'ATGCTGCTTC'
p2182
I3795
tp2183
a(S'ATGCTGGTAA'
p2184
I2542
tp2185
a(S'ATGCTGGTAT'
p2186
I3075
tp2187
a(S'ATGCTGTTCA'
p2188
I358
tp2189
a(S'ATGCTTACTC'
p2190
I3623
tp2191
a(S'ATGCTTCCTC'
p2192
I3339
tp2193
a(S'ATGCTTGCTT'
p2194
I3521
tp2195
a(S'ATGCTTGGCA'
p2196
I249
tp2197
a(S'ATGCTTGGCT'
p2198
I4097
tp2199
a(S'ATGCTTGGGA'
p2200
I3315
tp2201
a(S'ATGCTTTGCG'
p2202
I4632
tp2203
a(S'ATGGAAAACA'
p2204
I3569
tp2205
a(S'ATGGAACAAC'
p2206
I5074
tp2207
a(S'ATGGAACTGA'
p2208
I1751
tp2209
a(S'ATGGAAGGCG'
p2210
I680
tp2211
a(S'ATGGACCTTG'
p2212
I5039
tp2213
a(S'ATGGACGCCG'
p2214
I1129
tp2215
a(S'ATGGATAACC'
p2216
I4118
tp2217
a(S'ATGGATACAT'
p2218
I2577
tp2219
a(S'ATGGATGAAT'
p2220
I4262
tp2221
a(S'ATGGCAACTT'
p2222
I1961
tp2223
a(S'ATGGCACTAT'
p2224
I1841
tp2225
a(S'ATGGCCGTCT'
p2226
I4755
tp2227
a(S'ATGGCGTCGA'
p2228
I714
tp2229
a(S'ATGGCTAAAG'
p2230
I3155
tp2231
a(S'ATGGCTCTTC'
p2232
I3741
tp2233
a(S'ATGGCTGTTG'
p2234
I4991
tp2235
a(S'ATGGGTCTGC'
p2236
I1579
tp2237
a(S'ATGGGTGATG'
p2238
I3068
tp2239
a(S'ATGGTACAGC'
p2240
I4743
tp2241
a(S'ATGGTACGCT'
p2242
I567
tp2243
a(S'ATGGTAGAGA'
p2244
I301
tp2245
a(S'ATGGTATTGA'
p2246
I3825
tp2247
a(S'ATGGTATTGG'
p2248
I3885
tp2249
a(S'ATGGTCGCCA'
p2250
I2731
tp2251
a(S'ATGGTGAACA'
p2252
I1232
tp2253
a(S'ATGGTGATAT'
p2254
I4185
tp2255
a(S'ATGGTGGTTA'
p2256
I2743
tp2257
a(S'ATGGTGGTTT'
p2258
I2551
tp2259
a(S'ATGGTGTTAA'
p2260
I1262
tp2261
a(S'ATGGTTACAG'
p2262
I4881
tp2263
a(S'ATGGTTCGTT'
p2264
I3980
tp2265
a(S'ATGGTTCTTG'
p2266
I4667
tp2267
a(S'ATGGTTGACG'
p2268
I3356
tp2269
a(S'ATGGTTGGTT'
p2270
I4560
tp2271
a(S'ATGGTTTCCG'
p2272
I1475
tp2273
a(S'ATGGTTTGGT'
p2274
I2826
tp2275
a(S'ATGGTTTTTA'
p2276
I4348
tp2277
a(S'ATGTAATGTC'
p2278
I842
tp2279
a(S'ATGTAGGTGG'
p2280
I941
tp2281
a(S'ATGTATGTTG'
p2282
I4193
tp2283
a(S'ATGTCACGCT'
p2284
I4006
tp2285
a(S'ATGTCCCTCA'
p2286
I1211
tp2287
a(S'ATGTCGTCAC'
p2288
I3783
tp2289
a(S'ATGTCTAAAG'
p2290
I847
tp2291
a(S'ATGTCTAAAT'
p2292
I2981
tp2293
a(S'ATGTCTAATA'
p2294
I1000
tp2295
a(S'ATGTGACCGT'
p2296
I2228
tp2297
a(S'ATGTGCTCCC'
p2298
I4287
tp2299
a(S'ATGTGCTTGC'
p2300
I3036
tp2301
a(S'ATGTGGCTAA'
p2302
I5007
tp2303
a(S'ATGTTATTTC'
p2304
I1652
tp2305
a(S'ATGTTCATCC'
p2306
I642
tp2307
a(S'ATGTTCCTAA'
p2308
I3108
tp2309
a(S'ATGTTGACGG'
p2310
I4197
tp2311
a(S'ATGTTGATGG'
p2312
I1745
tp2313
a(S'ATGTTGGTTT'
p2314
I2815
tp2315
a(S'ATGTTTACTC'
p2316
I1849
tp2317
a(S'ATGTTTATCC'
p2318
I2716
tp2319
a(S'ATGTTTCAGA'
p2320
I2394
tp2321
a(S'ATGTTTCTCC'
p2322
I2072
tp2323
a(S'ATGTTTGGTG'
p2324
I2930
tp2325
a(S'ATGTTTTCAT'
p2326
I3945
tp2327
a(S'ATGTTTTCCG'
p2328
I1997
tp2329
a(S'ATTAAAGAGA'
p2330
I2886
tp2331
a(S'ATTAAATCGA'
p2332
I103
tp2333
a(S'ATTAAATCTG'
p2334
I3083
tp2335
a(S'ATTAACCCTG'
p2336
I1336
tp2337
a(S'ATTAAGCTCA'
p2338
I440
tp2339
a(S'ATTAAGGATG'
p2340
I4457
tp2341
a(S'ATTAAGTTCA'
p2342
I1246
tp2343
a(S'ATTAATAACA'
p2344
I4307
tp2345
a(S'ATTAATGGCG'
p2346
I710
tp2347
a(S'ATTACCATTT'
p2348
I1084
tp2349
a(S'ATTACCCCAA'
p2350
I4437
tp2351
a(S'ATTACCCTTC'
p2352
I3993
tp2353
a(S'ATTACGTGCG'
p2354
I823
tp2355
a(S'ATTACTACTG'
p2356
I82
tp2357
a(S'ATTACTATCT'
p2358
I341
tp2359
a(S'ATTACTTCAT'
p2360
I1628
tp2361
a(S'ATTAGAGGCG'
p2362
I4606
tp2363
a(S'ATTATACCGT'
p2364
I2752
tp2365
a(S'ATTATCTTGA'
p2366
I62
tp2367
a(S'ATTATCTTGC'
p2368
I3285
tp2369
a(S'ATTATGACCA'
p2370
I2168
tp2371
a(S'ATTATGCGCC'
p2372
I3611
tp2373
a(S'ATTATGGAAA'
p2374
I3566
tp2375
a(S'ATTATGGGTC'
p2376
I1576
tp2377
a(S'ATTATGTCTA'
p2378
I997
tp2379
a(S'ATTATGTTCA'
p2380
I639
tp2381
a(S'ATTATTAATG'
p2382
I707
tp2383
a(S'ATTATTTGTC'
p2384
I2895
tp2385
a(S'ATTATTTTGA'
p2386
I4017
tp2387
a(S'ATTCAAACGG'
p2388
I659
tp2389
a(S'ATTCAAACTG'
p2390
I1009
tp2391
a(S'ATTCAAACTT'
p2392
I2422
tp2393
a(S'ATTCAAGGCT'
p2394
I3095
tp2395
a(S'ATTCAAGGTG'
p2396
I3026
tp2397
a(S'ATTCAATCAT'
p2398
I2264
tp2399
a(S'ATTCACACGC'
p2400
I4701
tp2401
a(S'ATTCAGATGG'
p2402
I2571
tp2403
a(S'ATTCAGCGTT'
p2404
I4520
tp2405
a(S'ATTCAGGAAC'
p2406
I2113
tp2407
a(S'ATTCAGGCTT'
p2408
I449
tp2409
a(S'ATTCAGTACC'
p2410
I1897
tp2411
a(S'ATTCAGTCGG'
p2412
I3464
tp2413
a(S'ATTCATTCAG'
p2414
I2109
tp2415
a(S'ATTCGACCTA'
p2416
I140
tp2417
a(S'ATTCGCCACC'
p2418
I2155
tp2419
a(S'ATTCGCGATG'
p2420
I4421
tp2421
a(S'ATTCGTCTAA'
p2422
I2015
tp2423
a(S'ATTCTCTTGT'
p2424
I310
tp2425
a(S'ATTCTGTCAA'
p2426
I204
tp2427
a(S'ATTCTGTCTT'
p2428
I4148
tp2429
a(S'ATTCTGTGCC'
p2430
I1811
tp2431
a(S'ATTGAAGCAG'
p2432
I5242
tp2433
a(S'ATTGACACCC'
p2434
I3925
tp2435
a(S'ATTGACATTA'
p2436
I1570
tp2437
a(S'ATTGACCATG'
p2438
I1309
tp2439
a(S'ATTGACGTCC'
p2440
I2778
tp2441
a(S'ATTGACTCTA'
p2442
I1180
tp2443
a(S'ATTGAGGCTG'
p2444
I5272
tp2445
a(S'ATTGAGGCTT'
p2446
I4058
tp2447
a(S'ATTGAGTGTG'
p2448
I2290
tp2449
a(S'ATTGATAAAG'
p2450
I3830
tp2451
a(S'ATTGCAGGGG'
p2452
I963
tp2453
a(S'ATTGCATTCA'
p2454
I2566
tp2455
a(S'ATTGCCGAGA'
p2456
I3422
tp2457
a(S'ATTGCGTCGT'
p2458
I1161
tp2459
a(S'ATTGCTACTG'
p2460
I518
tp2461
a(S'ATTGCTGAGG'
p2462
I2035
tp2463
a(S'ATTGCTGCCG'
p2464
I620
tp2465
a(S'ATTGCTGGAG'
p2466
I4477
tp2467
a(S'ATTGCTGGCA'
p2468
I3455
tp2469
a(S'ATTGCTGGCG'
p2470
I1939
tp2471
a(S'ATTGCTGGCG'
p2472
I2942
tp2473
a(S'ATTGCTTATT'
p2474
I632
tp2475
a(S'ATTGCTTCTG'
p2476
I2954
tp2477
a(S'ATTGCTTTTG'
p2478
I2628
tp2479
a(S'ATTGGCACAA'
p2480
I4270
tp2481
a(S'ATTGGCGCTA'
p2482
I3755
tp2483
a(S'ATTGGCGTAT'
p2484
I5366
tp2485
a(S'ATTGGCTCTA'
p2486
I3890
tp2487
a(S'ATTGGTCGTA'
p2488
I4658
tp2489
a(S'ATTGGTCGTC'
p2490
I1072
tp2491
a(S'ATTGGTTTCG'
p2492
I2864
tp2493
a(S'ATTGTATGTT'
p2494
I3940
tp2495
a(S'ATTGTTCGCG'
p2496
I745
tp2497
a(S'ATTGTTTGGA'
p2498
I2989
tp2499
a(S'ATTTAACCGA'
p2500
I471
tp2501
a(S'ATTTAATGTG'
p2502
I2223
tp2503
a(S'ATTTACGGAA'
p2504
I694
tp2505
a(S'ATTTATGCGC'
p2506
I5341
tp2507
a(S'ATTTATGTTT'
p2508
I2926
tp2509
a(S'ATTTCAACTA'
p2510
I1090
tp2511
a(S'ATTTCCATGC'
p2512
I4767
tp2513
a(S'ATTTCCTGAG'
p2514
I3301
tp2515
a(S'ATTTCGATTT'
p2516
I486
tp2517
a(S'ATTTCTAATG'
p2518
I3776
tp2519
a(S'ATTTCTACTC'
p2520
I4073
tp2521
a(S'ATTTCTATGA'
p2522
I1984
tp2523
a(S'ATTTCTCGCC'
p2524
I2409
tp2525
a(S'ATTTCTGATG'
p2526
I43
tp2527
a(S'ATTTCTGGAA'
p2528
I3861
tp2529
a(S'ATTTCTTCAT'
p2530
I1657
tp2531
a(S'ATTTGAATAT'
p2532
I1382
tp2533
a(S'ATTTGAGAAT'
p2534
I3370
tp2535
a(S'ATTTGCAAGA'
p2536
I2135
tp2537
a(S'ATTTGCATAC'
p2538
I1604
tp2539
a(S'ATTTGGACTG'
p2540
I1504
tp2541
a(S'ATTTGGAGGT'
p2542
I1665
tp2543
a(S'ATTTGGTTGG'
p2544
I3231
tp2545
a(S'ATTTGTCTAG'
p2546
I3900
tp2547
a(S'ATTTGTCTCC'
p2548
I2898
tp2549
a(S'ATTTGTTTCA'
p2550
I1367
tp2551
a(S'ATTTTAAAAG'
p2552
I324
tp2553
a(S'ATTTTAAAGC'
p2554
I1403
tp2555
a(S'ATTTTAATTG'
p2556
I957
tp2557
a(S'ATTTTAATTT'
p2558
I2325
tp2559
a(S'ATTTTACCAA'
p2560
I3654
tp2561
a(S'ATTTTCGTGA'
p2562
I4647
tp2563
a(S'ATTTTCTGAC'
p2564
I492
tp2565
a(S'ATTTTGACTT'
p2566
I4020
tp2567
a(S'ATTTTGATAG'
p2568
I2521
tp2569
a(S'ATTTTGGTCG'
p2570
I4821
tp2571
a(S'ATTTTGTTCA'
p2572
I292
tp2573
a(S'ATTTTTACTT'
p2574
I1198
tp2575
a(S'ATTTTTCATG'
p2576
I3818
tp2577
a(S'ATTTTTGCCG'
p2578
I2331
tp2579
a(S'ATTTTTGTGT'
p2580
I4725
tp2581
a(S'ATTTTTTGCC'
p2582
I2651
tp2583
a(S'CAAAAACATT'
p2584
I1497
tp2585
a(S'CAAAAACTGA'
p2586
I211
tp2587
a(S'CAAAAAGAAA'
p2588
I4444
tp2589
a(S'CAAAAAGAGA'
p2590
I3446
tp2591
a(S'CAAAAAGAGA'
p2592
I5256
tp2593
a(S'CAAAAAGAGC'
p2594
I3380
tp2595
a(S'CAAAAAGCCG'
p2596
I3005
tp2597
a(S'CAAAAAGTCA'
p2598
I5026
tp2599
a(S'CAAAAATTAC'
p2600
I818
tp2601
a(S'CAAAATACGT'
p2602
I4865
tp2603
a(S'CAAAATGAGA'
p2604
I3434
tp2605
a(S'CAAAATGAGA'
p2606
I3512
tp2607
a(S'CAAACGCAGA'
p2608
I3722
tp2609
a(S'CAAACGGCCT'
p2610
I662
tp2611
a(S'CAAACGGCTG'
p2612
I3638
tp2613
a(S'CAAACGTCGT'
p2614
I1762
tp2615
a(S'CAAACTGGCG'
p2616
I1012
tp2617
a(S'CAAACTTTTT'
p2618
I2425
tp2619
a(S'CAAAGAAATG'
p2620
I3673
tp2621
a(S'CAAAGGATAT'
p2622
I3768
tp2623
a(S'CAAAGTTTGG'
p2624
I508
tp2625
a(S'CAAATCAAAG'
p2626
I3668
tp2627
a(S'CAAATCTGCT'
p2628
I5328
tp2629
a(S'CAAATCTGTC'
p2630
I5172
tp2631
a(S'CAAATCTTGG'
p2632
I3960
tp2633
a(S'CAAATGACGA'
p2634
I1546
tp2635
a(S'CAAATGCTTA'
p2636
I3620
tp2637
a(S'CAAATTTATG'
p2638
I5338
tp2639
a(S'CAACAATTTT'
p2640
I952
tp2641
a(S'CAACAGAAGG'
p2642
I3533
tp2643
a(S'CAACAGACCT'
p2644
I1795
tp2645
a(S'CAACAGCAGG'
p2646
I3593
tp2647
a(S'CAACATTCAA'
p2648
I655
tp2649
a(S'CAACCACTAA'
p2650
I366
tp2651
a(S'CAACCAGATA'
p2652
I5233
tp2653
a(S'CAACCGTCCT'
p2654
I1695
tp2655
a(S'CAACCTGTGA'
p2656
I5315
tp2657
a(S'CAACGCCGCT'
p2658
I2591
tp2659
a(S'CAACGTTATA'
p2660
I2512
tp2661
a(S'CAACTAACGA'
p2662
I195
tp2663
a(S'CAACTACTCC'
p2664
I1094
tp2665
a(S'CAACTATTTT'
p2666
I1398
tp2667
a(S'CAACTCACTA'
p2668
I5080
tp2669
a(S'CAACTGGACA'
p2670
I3401
tp2671
a(S'CAACTTACCA'
p2672
I5198
tp2673
a(S'CAACTTCGGG'
p2674
I5143
tp2675
a(S'CAACTTGATA'
p2676
I4298
tp2677
a(S'CAACTTGCCG'
p2678
I1965
tp2679
a(S'CAAGAACGCG'
p2680
I2140
tp2681
a(S'CAAGAACGTG'
p2682
I1618
tp2683
a(S'CAAGAAGCTG'
p2684
I5113
tp2685
a(S'CAAGATGATG'
p2686
I1459
tp2687
a(S'CAAGATTGCT'
p2688
I4473
tp2689
a(S'CAAGCAACAG'
p2690
I3589
tp2691
a(S'CAAGCGAAGC'
p2692
I2354
tp2693
a(S'CAAGCGTAAA'
p2694
I915
tp2695
a(S'CAAGCTCAAA'
p2696
I3632
tp2697
a(S'CAAGCTCTTG'
p2698
I4132
tp2699
a(S'CAAGCTGCTT'
p2700
I1588
tp2701
a(S'CAAGCTGGCT'
p2702
I4390
tp2703
a(S'CAAGCTGGGT'
p2704
I5206
tp2705
a(S'CAAGCTGTCG'
p2706
I5095
tp2707
a(S'CAAGGACTGG'
p2708
I266
tp2709
a(S'CAAGGACTGT'
p2710
I2762
tp2711
a(S'CAAGGCTAAT'
p2712
I4690
tp2713
a(S'CAAGGCTCTA'
p2714
I3098
tp2715
a(S'CAAGGTGATG'
p2716
I3029
tp2717
a(S'CAAGGTTAGT'
p2718
I3688
tp2719
a(S'CAAGTCTGCC'
p2720
I3250
tp2721
a(S'CAAGTTACTG'
p2722
I395
tp2723
a(S'CAATAAAATC'
p2724
I1350
tp2725
a(S'CAATAACGTT'
p2726
I2804
tp2727
a(S'CAATACTGTA'
p2728
I3055
tp2729
a(S'CAATCAGAAA'
p2730
I3409
tp2731
a(S'CAATCATGAC'
p2732
I2267
tp2733
a(S'CAATCCCCAA'
p2734
I4088
tp2735
a(S'CAATCCGTAC'
p2736
I407
tp2737
a(S'CAATCGCCGC'
p2738
I4840
tp2739
a(S'CAATCTGCCG'
p2740
I2244
tp2741
a(S'CAATCTTTCC'
p2742
I3580
tp2743
a(S'CAATGACAAA'
p2744
I5166
tp2745
a(S'CAATGACCAA'
p2746
I3661
tp2747
a(S'CAATGCGACA'
p2748
I4539
tp2749
a(S'CAATGCTACA'
p2750
I4277
tp2751
a(S'CAATGCTTGG'
p2752
I4095
tp2753
a(S'CAATGCTTTG'
p2754
I4630
tp2755
a(S'CAATGTGCTC'
p2756
I4285
tp2757
a(S'CAATTGTATG'
p2758
I3938
tp2759
a(S'CAATTTCTGG'
p2760
I3859
tp2761
a(S'CAATTTTAAT'
p2762
I955
tp2763
a(S'CACAAAATGA'
p2764
I3510
tp2765
a(S'CACAATGACA'
p2766
I5164
tp2767
a(S'CACAATGCTA'
p2768
I4275
tp2769
a(S'CACACGCCGA'
p2770
I4704
tp2771
a(S'CACATCTATT'
p2772
I1563
tp2773
a(S'CACATTTTGT'
p2774
I289
tp2775
a(S'CACCAATCTT'
p2776
I3577
tp2777
a(S'CACCATGATT'
p2778
I2161
tp2779
a(S'CACCCTCCCA'
p2780
I3930
tp2781
a(S'CACCGCCCCG'
p2782
I4325
tp2783
a(S'CACCTAAAGC'
p2784
I2494
tp2785
a(S'CACCTGTTTT'
p2786
I2479
tp2787
a(S'CACCTTCTTG'
p2788
I2089
tp2789
a(S'CACGATTAAC'
p2790
I1332
tp2791
a(S'CACGCAGGAC'
p2792
I4912
tp2793
a(S'CACGCCAGAA'
p2794
I3480
tp2795
a(S'CACGCCGACT'
p2796
I4706
tp2797
a(S'CACGCTGATT'
p2798
I4010
tp2799
a(S'CACGGAGTGC'
p2800
I5182
tp2801
a(S'CACGTTCGTC'
p2802
I257
tp2803
a(S'CACGTTCTGG'
p2804
I4929
tp2805
a(S'CACGTTGGCT'
p2806
I4588
tp2807
a(S'CACGTTTATG'
p2808
I1225
tp2809
a(S'CACTAAAAAC'
p2810
I5085
tp2811
a(S'CACTAATAGG'
p2812
I370
tp2813
a(S'CACTACTGGT'
p2814
I1296
tp2815
a(S'CACTATAGAC'
p2816
I4315
tp2817
a(S'CACTATGAAA'
p2818
I4492
tp2819
a(S'CACTATGTTT'
p2820
I1845
tp2821
a(S'CACTCCTCTC'
p2822
I1275
tp2823
a(S'CACTCGCGAT'
p2824
I2256
tp2825
a(S'CACTCTCACG'
p2826
I4582
tp2827
a(S'CACTGACGTT'
p2828
I781
tp2829
a(S'CACTGATGCT'
p2830
I3790
tp2831
a(S'CACTTAAGTG'
p2832
I2911
tp2833
a(S'CACTTCCTAC'
p2834
I4794
tp2835
a(S'CACTTCTGCC'
p2836
I3202
tp2837
a(S'CACTTCTGTT'
p2838
I2453
tp2839
a(S'CACTTTATGC'
p2840
I4781
tp2841
a(S'CACTTTCGGA'
p2842
I32
tp2843
a(S'CAGAAAGAGA'
p2844
I3413
tp2845
a(S'CAGAACGCAA'
p2846
I5249
tp2847
a(S'CAGAAGAAAA'
p2848
I801
tp2849
a(S'CAGAAGGAGT'
p2850
I3536
tp2851
a(S'CAGAAGTTAA'
p2852
I22
tp2853
a(S'CAGAATACGA'
p2854
I3485
tp2855
a(S'CAGAATCAGA'
p2856
I5125
tp2857
a(S'CAGAATCAGC'
p2858
I3728
tp2859
a(S'CAGAATGAGC'
p2860
I5131
tp2861
a(S'CAGACACCTA'
p2862
I2490
tp2863
a(S'CAGACCGCTT'
p2864
I422
tp2865
a(S'CAGACCTATA'
p2866
I1798
tp2867
a(S'CAGACTTTTA'
p2868
I2400
tp2869
a(S'CAGATATGGA'
p2870
I5034
tp2871
a(S'CAGATATTGA'
p2872
I5237
tp2873
a(S'CAGATGGATA'
p2874
I2574
tp2875
a(S'CAGATGGATA'
p2876
I4115
tp2877
a(S'CAGATTGGTC'
p2878
I1069
tp2879
a(S'CAGCAAACGC'
p2880
I3719
tp2881
a(S'CAGCAGGTTT'
p2882
I3596
tp2883
a(S'CAGCCACTTA'
p2884
I2907
tp2885
a(S'CAGCCGTTGC'
p2886
I892
tp2887
a(S'CAGCGGTATG'
p2888
I3734
tp2889
a(S'CAGCGTTACC'
p2890
I1639
tp2891
a(S'CAGCGTTTGA'
p2892
I4523
tp2893
a(S'CAGCTAATGG'
p2894
I4749
tp2895
a(S'CAGCTCGAGA'
p2896
I158
tp2897
a(S'CAGCTTCTTC'
p2898
I2467
tp2899
a(S'CAGGAAACAC'
p2900
I774
tp2901
a(S'CAGGAACCGC'
p2902
I2116
tp2903
a(S'CAGGAATTAC'
p2904
I77
tp2905
a(S'CAGGACGCTT'
p2906
I4916
tp2907
a(S'CAGGATTGAC'
p2908
I3921
tp2909
a(S'CAGGCTCATG'
p2910
I4547
tp2911
a(S'CAGGCTGGCA'
p2912
I3194
tp2913
a(S'CAGGCTTCTG'
p2914
I452
tp2915
a(S'CAGGGCGTTG'
p2916
I4166
tp2917
a(S'CAGGGGCTTC'
p2918
I967
tp2919
a(S'CAGGGTTATT'
p2920
I1375
tp2921
a(S'CAGGTAGCGT'
p2922
I4803
tp2923
a(S'CAGGTATATG'
p2924
I3500
tp2925
a(S'CAGGTTAAAT'
p2926
I2215
tp2927
a(S'CAGGTTATTA'
p2928
I2880
tp2929
a(S'CAGGTTGTTT'
p2930
I2604
tp2931
a(S'CAGGTTTCCG'
p2932
I3599
tp2933
a(S'CAGTACCTTA'
p2934
I1900
tp2935
a(S'CAGTATGCCC'
p2936
I4888
tp2937
a(S'CAGTATTTTA'
p2938
I3650
tp2939
a(S'CAGTATTTTT'
p2940
I4721
tp2941
a(S'CAGTCCGTTC'
p2942
I2185
tp2943
a(S'CAGTCGGCGA'
p2944
I3467
tp2945
a(S'CAGTGGAATA'
p2946
I2203
tp2947
a(S'CAGTGGATTA'
p2948
I1240
tp2949
a(S'CAGTGGTATC'
p2950
I2047
tp2951
a(S'CAGTGTTTCC'
p2952
I2176
tp2953
a(S'CAGTTAAATA'
p2954
I4850
tp2955
a(S'CAGTTATATG'
p2956
I4984
tp2957
a(S'CAGTTCGCTA'
p2958
I4902
tp2959
a(S'CAGTTGTTGC'
p2960
I2194
tp2961
a(S'CAGTTTTCTG'
p2962
I1777
tp2963
a(S'CAGTTTTGCC'
p2964
I4379
tp2965
a(S'CATAAGCAGA'
p2966
I4109
tp2967
a(S'CATAAGGCTG'
p2968
I4208
tp2969
a(S'CATAATTCAA'
p2970
I2418
tp2971
a(S'CATACTGACC'
p2972
I1609
tp2973
a(S'CATATTGGCG'
p2974
I3752
tp2975
a(S'CATCAACTAA'
p2976
I192
tp2977
a(S'CATCAAGCTC'
p2978
I4129
tp2979
a(S'CATCAGCAAA'
p2980
I3716
tp2981
a(S'CATCATGGAA'
p2982
I676
tp2983
a(S'CATCCCGTCA'
p2984
I647
tp2985
a(S'CATCGCAGTT'
p2986
I4897
tp2987
a(S'CATCGTCAAC'
p2988
I2506
tp2989
a(S'CATCGTCACG'
p2990
I1219
tp2991
a(S'CATCTATTGA'
p2992
I1565
tp2993
a(S'CATCTCAAAA'
p2994
I1492
tp2995
a(S'CATCTGGCTA'
p2996
I1733
tp2997
a(S'CATCTGTCAA'
p2998
I2584
tp2999
a(S'CATCTTGGCT'
p3000
I1048
tp3001
a(S'CATGAAGGAT'
p3002
I1254
tp3003
a(S'CATGACCTTT'
p3004
I1036
tp3005
a(S'CATGACGCAG'
p3006
I15
tp3007
a(S'CATGACTTCG'
p3008
I2271
tp3009
a(S'CATGAGTCAA'
p3010
I388
tp3011
a(S'CATGATGGTG'
p3012
I2739
tp3013
a(S'CATGATGTTA'
p3014
I1648
tp3015
a(S'CATGATTATG'
p3016
I2164
tp3017
a(S'CATGCAGCGT'
p3018
I1635
tp3019
a(S'CATGCCGCTT'
p3020
I1315
tp3021
a(S'CATGCCTCCA'
p3022
I3952
tp3023
a(S'CATGCGCTCT'
p3024
I1713
tp3025
a(S'CATGCGGTGC'
p3026
I4772
tp3027
a(S'CATGCTGATG'
p3028
I4553
tp3029
a(S'CATGGAAGGC'
p3030
I679
tp3031
a(S'CATGGCACTA'
p3032
I1840
tp3033
a(S'CATGGGTGAT'
p3034
I3067
tp3035
a(S'CATGGTAGAG'
p3036
I300
tp3037
a(S'CATGGTATTG'
p3038
I3824
tp3039
a(S'CATGGTTTGG'
p3040
I2825
tp3041
a(S'CATGTCTAAA'
p3042
I2980
tp3043
a(S'CATGTTTCAG'
p3044
I2393
tp3045
a(S'CATTATGGGT'
p3046
I1575
tp3047
a(S'CATTATTAAT'
p3048
I706
tp3049
a(S'CATTCAAACG'
p3050
I658
tp3051
a(S'CATTCAAGGC'
p3052
I3094
tp3053
a(S'CATTCAAGGT'
p3054
I3025
tp3055
a(S'CATTCAGATG'
p3056
I2570
tp3057
a(S'CATTCAGGAA'
p3058
I2112
tp3059
a(S'CATTCAGGCT'
p3060
I448
tp3061
a(S'CATTCAGTCG'
p3062
I3463
tp3063
a(S'CATTCATTCA'
p3064
I2108
tp3065
a(S'CATTCTGTGC'
p3066
I1810
tp3067
a(S'CATTGCATTC'
p3068
I2565
tp3069
a(S'CATTGCGTCG'
p3070
I1160
tp3071
a(S'CATTGCTTAT'
p3072
I631
tp3073
a(S'CATTTCAACT'
p3074
I1089
tp3075
a(S'CATTTCCATG'
p3076
I4766
tp3077
a(S'CATTTCCTGA'
p3078
I3300
tp3079
a(S'CATTTCTACT'
p3080
I4072
tp3081
a(S'CATTTGGACT'
p3082
I1503
tp3083
a(S'CATTTGGAGG'
p3084
I1664
tp3085
a(S'CATTTGTTTC'
p3086
I1366
tp3087
a(S'CATTTTAAAA'
p3088
I323
tp3089
a(S'CATTTTGTTC'
p3090
I291
tp3091
a(S'CATTTTTACT'
p3092
I1197
tp3093
a(S'CCAAAAAGAA'
p3094
I4443
tp3095
a(S'CCAAACGTCG'
p3096
I1761
tp3097
a(S'CCAAATCAAA'
p3098
I3667
tp3099
a(S'CCAAATCTTG'
p3100
I3959
tp3101
a(S'CCAAATGACG'
p3102
I1545
tp3103
a(S'CCAAATGCTT'
p3104
I3619
tp3105
a(S'CCAACCTGCA'
p3106
I5376
tp3107
a(S'CCAACTTACC'
p3108
I5197
tp3109
a(S'CCAACTTGAT'
p3110
I4297
tp3111
a(S'CCAAGAACGT'
p3112
I1617
tp3113
a(S'CCAAGAAGCT'
p3114
I5112
tp3115
a(S'CCAAGCAACA'
p3116
I3588
tp3117
a(S'CCAAGCGAAG'
p3118
I2353
tp3119
a(S'CCAAGCTGGG'
p3120
I5205
tp3121
a(S'CCAAGCTGTC'
p3122
I5094
tp3123
a(S'CCAATAAAAT'
p3124
I1349
tp3125
a(S'CCAATCTTTC'
p3126
I3579
tp3127
a(S'CCAATGACCA'
p3128
I3660
tp3129
a(S'CCAATGCTTG'
p3130
I4094
tp3131
a(S'CCAATGCTTT'
p3132
I4629
tp3133
a(S'CCAATTGTAT'
p3134
I3937
tp3135
a(S'CCACATCTAT'
p3136
I1562
tp3137
a(S'CCACCATGAT'
p3138
I2160
tp3139
a(S'CCACCGCCCC'
p3140
I4324
tp3141
a(S'CCACGGAGTG'
p3142
I5181
tp3143
a(S'CCACTAATAG'
p3144
I369
tp3145
a(S'CCACTATGAA'
p3146
I4491
tp3147
a(S'CCACTCCTCT'
p3148
I1274
tp3149
a(S'CCACTCGCGA'
p3150
I2255
tp3151
a(S'CCACTTAAGT'
p3152
I2910
tp3153
a(S'CCAGAATACG'
p3154
I3484
tp3155
a(S'CCAGACCGCT'
p3156
I421
tp3157
a(S'CCAGATATTG'
p3158
I5236
tp3159
a(S'CCAGCCACTT'
p3160
I2906
tp3161
a(S'CCAGCTTCTT'
p3162
I2466
tp3163
a(S'CCAGGTATAT'
p3164
I3499
tp3165
a(S'CCAGTCCGTT'
p3166
I2184
tp3167
a(S'CCAGTGTTTC'
p3168
I2175
tp3169
a(S'CCAGTTAAAT'
p3170
I4849
tp3171
a(S'CCAGTTATAT'
p3172
I4983
tp3173
a(S'CCAGTTTTCT'
p3174
I1776
tp3175
a(S'CCATAAGCAG'
p3176
I4108
tp3177
a(S'CCATAAGGCT'
p3178
I4207
tp3179
a(S'CCATAATTCA'
p3180
I2417
tp3181
a(S'CCATCAACTA'
p3182
I191
tp3183
a(S'CCATCGCAGT'
p3184
I4896
tp3185
a(S'CCATCTCAAA'
p3186
I1491
tp3187
a(S'CCATCTTGGC'
p3188
I1047
tp3189
a(S'CCATGACGCA'
p3190
I14
tp3191
a(S'CCATGATGGT'
p3192
I2738
tp3193
a(S'CCATGATGTT'
p3194
I1647
tp3195
a(S'CCATGATTAT'
p3196
I2163
tp3197
a(S'CCATGCCGCT'
p3198
I1314
tp3199
a(S'CCATGCGGTG'
p3200
I4771
tp3201
a(S'CCATGTCTAA'
p3202
I2979
tp3203
a(S'CCATTCAAGG'
p3204
I3093
tp3205
a(S'CCATTCATTC'
p3206
I2107
tp3207
a(S'CCATTGCGTC'
p3208
I1159
tp3209
a(S'CCATTTCAAC'
p3210
I1088
tp3211
a(S'CCCAAAAAGA'
p3212
I4442
tp3213
a(S'CCCAACTTGA'
p3214
I4296
tp3215
a(S'CCCAAGAAGC'
p3216
I5111
tp3217
a(S'CCCAATGCTT'
p3218
I4093
tp3219
a(S'CCCAATGCTT'
p3220
I4628
tp3221
a(S'CCCAATTGTA'
p3222
I3936
tp3223
a(S'CCCATCGCAG'
p3224
I4895
tp3225
a(S'CCCATCTTGG'
p3226
I1046
tp3227
a(S'CCCATTCATT'
p3228
I2106
tp3229
a(S'CCCCAAAAAG'
p3230
I4441
tp3231
a(S'CCCCAACTTG'
p3232
I4295
tp3233
a(S'CCCCAATGCT'
p3234
I4092
tp3235
a(S'CCCCCAACTT'
p3236
I4294
tp3237
a(S'CCCCGAAGGG'
p3238
I4330
tp3239
a(S'CCCCGTACGC'
p3240
I2790
tp3241
a(S'CCCCTAGTTT'
p3242
I3132
tp3243
a(S'CCCCTTACTT'
p3244
I979
tp3245
a(S'CCCGAAGGGG'
p3246
I4331
tp3247
a(S'CCCGACTGCC'
p3248
I2702
tp3249
a(S'CCCGACTGTT'
p3250
I1284
tp3251
a(S'CCCGTACGCC'
p3252
I2791
tp3253
a(S'CCCGTCAACA'
p3254
I650
tp3255
a(S'CCCTAAATTT'
p3256
I2645
tp3257
a(S'CCCTAAGCAT'
p3258
I1359
tp3259
a(S'CCCTAATGAG'
p3260
I1443
tp3261
a(S'CCCTAATTTT'
p3262
I4816
tp3263
a(S'CCCTAGTTTT'
p3264
I3133
tp3265
a(S'CCCTCATCGT'
p3266
I1215
tp3267
a(S'CCCTCCCAAT'
p3268
I3932
tp3269
a(S'CCCTCCCGAC'
p3270
I2698
tp3271
a(S'CCCTCGCTTT'
p3272
I592
tp3273
a(S'CCCTCTTAAG'
p3274
I4408
tp3275
a(S'CCCTGATACC'
p3276
I1341
tp3277
a(S'CCCTGATGAG'
p3278
I3118
tp3279
a(S'CCCTGGTCGT'
p3280
I879
tp3281
a(S'CCCTGTTTTG'
p3282
I1950
tp3283
a(S'CCCTTACTTG'
p3284
I980
tp3285
a(S'CCCTTCTGAA'
p3286
I3997
tp3287
a(S'CCGAAGATGA'
p3288
I477
tp3289
a(S'CCGAAGCGGT'
p3290
I2311
tp3291
a(S'CCGAAGGGGA'
p3292
I4332
tp3293
a(S'CCGACCACTC'
p3294
I2251
tp3295
a(S'CCGACCCTAA'
p3296
I2641
tp3297
a(S'CCGACGTTTT'
p3298
I5298
tp3299
a(S'CCGACTACCC'
p3300
I2691
tp3301
a(S'CCGACTGCCT'
p3302
I2703
tp3303
a(S'CCGACTGCTA'
p3304
I4710
tp3305
a(S'CCGACTGTTA'
p3306
I1285
tp3307
a(S'CCGAGATGCA'
p3308
I3426
tp3309
a(S'CCGAGATTAT'
p3310
I3606
tp3311
a(S'CCGAGCGTAT'
p3312
I1022
tp3313
a(S'CCGAGGCTAA'
p3314
I1433
tp3315
a(S'CCGAGGGTCG'
p3316
I4680
tp3317
a(S'CCGATAACAA'
p3318
I3048
tp3319
a(S'CCGATACTTG'
p3320
I3846
tp3321
a(S'CCGATATTGC'
p3322
I1934
tp3323
a(S'CCGATGCTGT'
p3324
I355
tp3325
a(S'CCGATTAGAG'
p3326
I4603
tp3327
a(S'CCGCAACTTC'
p3328
I5140
tp3329
a(S'CCGCAAGCTG'
p3330
I4387
tp3331
a(S'CCGCAGCCGT'
p3332
I889
tp3333
a(S'CCGCATCAAG'
p3334
I4126
tp3335
a(S'CCGCATGACC'
p3336
I1033
tp3337
a(S'CCGCCAGTTA'
p3338
I4846
tp3339
a(S'CCGCCCCGAA'
p3340
I4327
tp3341
a(S'CCGCCCCTAG'
p3342
I3129
tp3343
a(S'CCGCCGCGTG'
p3344
I1972
tp3345
a(S'CCGCCTACTG'
p3346
I1876
tp3347
a(S'CCGCCTCCGG'
p3348
I3012
tp3349
a(S'CCGCCTTCTG'
p3350
I2122
tp3351
a(S'CCGCGGATTG'
p3352
I2858
tp3353
a(S'CCGCGTGAAA'
p3354
I1975
tp3355
a(S'CCGCGTTTCT'
p3356
I1819
tp3357
a(S'CCGCTAATCA'
p3358
I2596
tp3359
a(S'CCGCTACTAA'
p3360
I2845
tp3361
a(S'CCGCTCTCGT'
p3362
I529
tp3363
a(S'CCGCTGAATT'
p3364
I738
tp3365
a(S'CCGCTGAGGG'
p3366
I2338
tp3367
a(S'CCGCTGATAA'
p3368
I3258
tp3369
a(S'CCGCTTAAAG'
p3370
I4970
tp3371
a(S'CCGCTTCCTC'
p3372
I1516
tp3373
a(S'CCGCTTTGGC'
p3374
I426
tp3375
a(S'CCGCTTTTCT'
p3376
I1319
tp3377
a(S'CCGGATTTGA'
p3378
I3366
tp3379
a(S'CCGGGCAATA'
p3380
I2799
tp3381
a(S'CCGGTGGCAT'
p3382
I3018
tp3383
a(S'CCGGTTAAAG'
p3384
I728
tp3385
a(S'CCGGTTATCG'
p3386
I1102
tp3387
a(S'CCGTACCGAG'
p3388
I1428
tp3389
a(S'CCGTACGCCG'
p3390
I2792
tp3391
a(S'CCGTACGTTT'
p3392
I411
tp3393
a(S'CCGTCAACAT'
p3394
I651
tp3395
a(S'CCGTCAAGGA'
p3396
I2758
tp3397
a(S'CCGTCAGGAT'
p3398
I3917
tp3399
a(S'CCGTCATTGC'
p3400
I627
tp3401
a(S'CCGTCCTTTA'
p3402
I1698
tp3403
a(S'CCGTCTTCAT'
p3404
I4759
tp3405
a(S'CCGTCTTTCT'
p3406
I1149
tp3407
a(S'CCGTGGATGC'
p3408
I1414
tp3409
a(S'CCGTTCAACC'
p3410
I5228
tp3411
a(S'CCGTTCAGTT'
p3412
I2189
tp3413
a(S'CCGTTCTGGT'
p3414
I2004
tp3415
a(S'CCGTTGCGAG'
p3416
I895
tp3417
a(S'CCGTTGCTGC'
p3418
I1482
tp3419
a(S'CCGTTGGCGC'
p3420
I1136
tp3421
a(S'CCGTTTATCG'
p3422
I2234
tp3423
a(S'CCGTTTCTGA'
p3424
I3210
tp3425
a(S'CCGTTTTGGA'
p3426
I462
tp3427
a(S'CCTAAAGCTA'
p3428
I2496
tp3429
a(S'CCTAAATTTT'
p3430
I2646
tp3431
a(S'CCTAACCCTG'
p3432
I3113
tp3433
a(S'CCTAAGCATT'
p3434
I1360
tp3435
a(S'CCTAATGAGC'
p3436
I1444
tp3437
a(S'CCTAATTTTG'
p3438
I4817
tp3439
a(S'CCTACAGGTA'
p3440
I4799
tp3441
a(S'CCTACTGCGA'
p3442
I1879
tp3443
a(S'CCTAGTTTTG'
p3444
I3134
tp3445
a(S'CCTATAAACA'
p3446
I1802
tp3447
a(S'CCTATCCTTG'
p3448
I146
tp3449
a(S'CCTATGATGT'
p3450
I2710
tp3451
a(S'CCTCATCGTC'
p3452
I1216
tp3453
a(S'CCTCCAAATC'
p3454
I3956
tp3455
a(S'CCTCCACTAT'
p3456
I4488
tp3457
a(S'CCTCCCAATT'
p3458
I3933
tp3459
a(S'CCTCCCGACT'
p3460
I2699
tp3461
a(S'CCTCCGGTGG'
p3462
I3015
tp3463
a(S'CCTCCTGAGA'
p3464
I1522
tp3465
a(S'CCTCGCTTTC'
p3466
I593
tp3467
a(S'CCTCTATTAA'
p3468
I435
tp3469
a(S'CCTCTCCCGA'
p3470
I1279
tp3471
a(S'CCTCTGCTGG'
p3472
I3345
tp3473
a(S'CCTCTTAAGG'
p3474
I4409
tp3475
a(S'CCTCTTATGA'
p3476
I1679
tp3477
a(S'CCTGACCGTA'
p3478
I1423
tp3479
a(S'CCTGAGACTG'
p3480
I1525
tp3481
a(S'CCTGAGCATG'
p3482
I1834
tp3483
a(S'CCTGAGCTTA'
p3484
I3305
tp3485
a(S'CCTGAGTATG'
p3486
I4736
tp3487
a(S'CCTGATACCA'
p3488
I1342
tp3489
a(S'CCTGATGAGG'
p3490
I3119
tp3491
a(S'CCTGCTATTG'
p3492
I4052
tp3493
a(S'CCTGCTCCTG'
p3494
I602
tp3495
a(S'CCTGCTTATC'
p3496
I2080
tp3497
a(S'CCTGGTCGTC'
p3498
I880
tp3499
a(S'CCTGTCTCAT'
p3500
I669
tp3501
a(S'CCTGTGACGA'
p3502
I5318
tp3503
a(S'CCTGTTGAGT'
p3504
I608
tp3505
a(S'CCTGTTGATG'
p3506
I4949
tp3507
a(S'CCTGTTTGGT'
p3508
I2659
tp3509
a(S'CCTGTTTTAC'
p3510
I2481
tp3511
a(S'CCTGTTTTGT'
p3512
I1951
tp3513
a(S'CCTTAACGCT'
p3514
I1905
tp3515
a(S'CCTTACTTGA'
p3516
I981
tp3517
a(S'CCTTATGGTT'
p3518
I4877
tp3519
a(S'CCTTCCCCGT'
p3520
I2786
tp3521
a(S'CCTTCGAGAT'
p3522
I1121
tp3523
a(S'CCTTCGTATG'
p3524
I2065
tp3525
a(S'CCTTCTGAAT'
p3526
I3998
tp3527
a(S'CCTTCTGGTG'
p3528
I2125
tp3529
a(S'CCTTCTTGAA'
p3530
I2091
tp3531
a(S'CCTTGCGCAG'
p3532
I151
tp3533
a(S'CCTTGCGTGT'
p3534
I759
tp3535
a(S'CCTTGCTATT'
p3536
I1173
tp3537
a(S'CCTTGCTGCT'
p3538
I5044
tp3539
a(S'CCTTGCTGGT'
p3540
I1059
tp3541
a(S'CCTTTACTTG'
p3542
I1702
tp3543
a(S'CCTTTCCCAT'
p3544
I1041
tp3545
a(S'CCTTTCGCCA'
p3546
I184
tp3547
a(S'CCTTTGAATG'
p3548
I2724
tp3549
a(S'CGAAAAATGG'
p3550
I4342
tp3551
a(S'CGAAAAATTA'
p3552
I56
tp3553
a(S'CGAAAGACCA'
p3554
I3492
tp3555
a(S'CGAAGATGAT'
p3556
I478
tp3557
a(S'CGAAGCGCGG'
p3558
I2358
tp3559
a(S'CGAAGCGGTA'
p3560
I2312
tp3561
a(S'CGAAGGGGAC'
p3562
I4333
tp3563
a(S'CGAAGTGGAC'
p3564
I110
tp3565
a(S'CGAATTAAAT'
p3566
I100
tp3567
a(S'CGACAAATCT'
p3568
I5325
tp3569
a(S'CGACAGGCTC'
p3570
I4544
tp3571
a(S'CGACCACTCG'
p3572
I2252
tp3573
a(S'CGACCCTAAA'
p3574
I2642
tp3575
a(S'CGACCCTGTT'
p3576
I1947
tp3577
a(S'CGACCGATTA'
p3578
I4600
tp3579
a(S'CGACCTATCC'
p3580
I143
tp3581
a(S'CGACCTTTCG'
p3582
I181
tp3583
a(S'CGACGCCGTT'
p3584
I5223
tp3585
a(S'CGACGCGACG'
p3586
I5218
tp3587
a(S'CGACGTTTTG'
p3588
I5299
tp3589
a(S'CGACTAAAGA'
p3590
I1886
tp3591
a(S'CGACTACCCT'
p3592
I2692
tp3593
a(S'CGACTCCTTC'
p3594
I1116
tp3595
a(S'CGACTGCCTA'
p3596
I2704
tp3597
a(S'CGACTGCTAT'
p3598
I4711
tp3599
a(S'CGACTGTTAA'
p3600
I1286
tp3601
a(S'CGACTTCACG'
p3602
I3474
tp3603
a(S'CGACTTCTAC'
p3604
I1553
tp3605
a(S'CGAGAAGACG'
p3606
I4363
tp3607
a(S'CGAGAAGCTC'
p3608
I163
tp3609
a(S'CGAGATGCAA'
p3610
I3427
tp3611
a(S'CGAGATGGAC'
p3612
I1125
tp3613
a(S'CGAGATTATG'
p3614
I3607
tp3615
a(S'CGAGCGTATG'
p3616
I1023
tp3617
a(S'CGAGCGTCCG'
p3618
I721
tp3619
a(S'CGAGGCTAAC'
p3620
I1434
tp3621
a(S'CGAGGCTCTT'
p3622
I4039
tp3623
a(S'CGAGGGTCGC'
p3624
I4681
tp3625
a(S'CGAGGTACTA'
p3626
I901
tp3627
a(S'CGAGTAACAA'
p3628
I501
tp3629
a(S'CGATAAAAAT'
p3630
I5355
tp3631
a(S'CGATAACAAT'
p3632
I3049
tp3633
a(S'CGATAATGGT'
p3634
I4180
tp3635
a(S'CGATACTTGG'
p3636
I3847
tp3637
a(S'CGATATTGCT'
p3638
I1935
tp3639
a(S'CGATGAGTAT'
p3640
I4426
tp3641
a(S'CGATGCTGTT'
p3642
I356
tp3643
a(S'CGATTAACCC'
p3644
I1334
tp3645
a(S'CGATTAGAGG'
p3646
I4604
tp3647
a(S'CGATTCAATC'
p3648
I2262
tp3649
a(S'CGATTCTGTC'
p3650
I202
tp3651
a(S'CGATTTTCTG'
p3652
I490
tp3653
a(S'CGCAAAAAGA'
p3654
I5254
tp3655
a(S'CGCAACCTGT'
p3656
I5313
tp3657
a(S'CGCAACTTCG'
p3658
I5141
tp3659
a(S'CGCAAGCTGG'
p3660
I4388
tp3661
a(S'CGCAAGGCTA'
p3662
I4688
tp3663
a(S'CGCAAGGTTA'
p3664
I3686
tp3665
a(S'CGCAATCGCC'
p3666
I4838
tp3667
a(S'CGCAATCTGC'
p3668
I2242
tp3669
a(S'CGCAGAAGAA'
p3670
I799
tp3671
a(S'CGCAGAAGTT'
p3672
I20
tp3673
a(S'CGCAGAATCA'
p3674
I3726
tp3675
a(S'CGCAGCCGTT'
p3676
I890
tp3677
a(S'CGCAGCTCGA'
p3678
I156
tp3679
a(S'CGCAGGAAAC'
p3680
I772
tp3681
a(S'CGCAGGACGC'
p3682
I4914
tp3683
a(S'CGCAGTTCGC'
p3684
I4900
tp3685
a(S'CGCAGTTTTG'
p3686
I4377
tp3687
a(S'CGCATCAAGC'
p3688
I4127
tp3689
a(S'CGCATGACCT'
p3690
I1034
tp3691
a(S'CGCCAAATGA'
p3692
I1543
tp3693
a(S'CGCCAAATGC'
p3694
I3617
tp3695
a(S'CGCCACCATG'
p3696
I2158
tp3697
a(S'CGCCAGAATA'
p3698
I3482
tp3699
a(S'CGCCAGTTAA'
p3700
I4847
tp3701
a(S'CGCCATAATT'
p3702
I2415
tp3703
a(S'CGCCATCAAC'
p3704
I189
tp3705
a(S'CGCCATGATG'
p3706
I2736
tp3707
a(S'CGCCATGTCT'
p3708
I2977
tp3709
a(S'CGCCCCGAAG'
p3710
I4328
tp3711
a(S'CGCCCCTAGT'
p3712
I3130
tp3713
a(S'CGCCCTCTTA'
p3714
I4406
tp3715
a(S'CGCCCTGGTC'
p3716
I877
tp3717
a(S'CGCCGAAGCG'
p3718
I2309
tp3719
a(S'CGCCGACTGC'
p3720
I4708
tp3721
a(S'CGCCGAGCGT'
p3722
I1020
tp3723
a(S'CGCCGCCAGT'
p3724
I4844
tp3725
a(S'CGCCGCGTGA'
p3726
I1973
tp3727
a(S'CGCCGCTAAT'
p3728
I2594
tp3729
a(S'CGCCGGATTT'
p3730
I3364
tp3731
a(S'CGCCGGGCAA'
p3732
I2797
tp3733
a(S'CGCCGTGGAT'
p3734
I1412
tp3735
a(S'CGCCGTTCAA'
p3736
I5226
tp3737
a(S'CGCCGTTGGC'
p3738
I1134
tp3739
a(S'CGCCTACTGC'
p3740
I1877
tp3741
a(S'CGCCTCCGGT'
p3742
I3013
tp3743
a(S'CGCCTTCGTA'
p3744
I2063
tp3745
a(S'CGCCTTCTGG'
p3746
I2123
tp3747
a(S'CGCGACGCCG'
p3748
I5221
tp3749
a(S'CGCGATGAGT'
p3750
I4424
tp3751
a(S'CGCGATTCAA'
p3752
I2260
tp3753
a(S'CGCGCAGGAA'
p3754
I770
tp3755
a(S'CGCGCTTCGA'
p3756
I5348
tp3757
a(S'CGCGGATTGG'
p3758
I2859
tp3759
a(S'CGCGGTAGGT'
p3760
I2363
tp3761
a(S'CGCGTACTTA'
p3762
I2146
tp3763
a(S'CGCGTAGAGG'
p3764
I4503
tp3765
a(S'CGCGTGAAAT'
p3766
I1976
tp3767
a(S'CGCGTTGCGT'
p3768
I3554
tp3769
a(S'CGCGTTGGAT'
p3770
I221
tp3771
a(S'CGCGTTTACC'
p3772
I751
tp3773
a(S'CGCGTTTCTT'
p3774
I1820
tp3775
a(S'CGCTAAAGGT'
p3776
I1911
tp3777
a(S'CGCTAATCAG'
p3778
I2597
tp3779
a(S'CGCTACACGC'
p3780
I4907
tp3781
a(S'CGCTACTAAA'
p3782
I2846
tp3783
a(S'CGCTACTGCA'
p3784
I3760
tp3785
a(S'CGCTACTTCC'
p3786
I5103
tp3787
a(S'CGCTCGCCCT'
p3788
I873
tp3789
a(S'CGCTCGTCTT'
p3790
I927
tp3791
a(S'CGCTCTAATC'
p3792
I1717
tp3793
a(S'CGCTCTCCGT'
p3794
I1143
tp3795
a(S'CGCTCTCGTG'
p3796
I530
tp3797
a(S'CGCTGAATCA'
p3798
I2872
tp3799
a(S'CGCTGAATTG'
p3800
I739
tp3801
a(S'CGCTGAATTT'
p3802
I688
tp3803
a(S'CGCTGACAAC'
p3804
I1689
tp3805
a(S'CGCTGAGGGG'
p3806
I2339
tp3807
a(S'CGCTGATAAA'
p3808
I3259
tp3809
a(S'CGCTGATTAT'
p3810
I4012
tp3811
a(S'CGCTGCGTTG'
p3812
I545
tp3813
a(S'CGCTGGACTT'
p3814
I573
tp3815
a(S'CGCTGGCGAC'
p3816
I1110
tp3817
a(S'CGCTTAAAGC'
p3818
I4971
tp3819
a(S'CGCTTCCATG'
p3820
I9
tp3821
a(S'CGCTTCCTCC'
p3822
I1517
tp3823
a(S'CGCTTCGATA'
p3824
I5350
tp3825
a(S'CGCTTGTTCG'
p3826
I1862
tp3827
a(S'CGCTTTCCTG'
p3828
I596
tp3829
a(S'CGCTTTGAGT'
p3830
I2670
tp3831
a(S'CGCTTTGGCC'
p3832
I427
tp3833
a(S'CGCTTTTCTT'
p3834
I1320
tp3835
a(S'CGCTTTTTCA'
p3836
I4921
tp3837
a(S'CGGAAAACAT'
p3838
I699
tp3839
a(S'CGGAAAATGA'
p3840
I126
tp3841
a(S'CGGAAGGAGT'
p3842
I831
tp3843
a(S'CGGACACTTC'
p3844
I4790
tp3845
a(S'CGGAGTGCTT'
p3846
I5184
tp3847
a(S'CGGATATTTC'
p3848
I38
tp3849
a(S'CGGATTGGTT'
p3850
I2861
tp3851
a(S'CGGATTTGAG'
p3852
I3367
tp3853
a(S'CGGCACCTGT'
p3854
I2476
tp3855
a(S'CGGCCATAAG'
p3856
I4204
tp3857
a(S'CGGCCCCTTA'
p3858
I976
tp3859
a(S'CGGCCTGTCT'
p3860
I666
tp3861
a(S'CGGCGACTTC'
p3862
I3471
tp3863
a(S'CGGCGCAACC'
p3864
I5310
tp3865
a(S'CGGCTGGTCA'
p3866
I3642
tp3867
a(S'CGGGATGAAA'
p3868
I5149
tp3869
a(S'CGGGCAATAA'
p3870
I2800
tp3871
a(S'CGGGTACGCA'
p3872
I4832
tp3873
a(S'CGGTAAAAAT'
p3874
I2317
tp3875
a(S'CGGTAAAGCT'
p3876
I3874
tp3877
a(S'CGGTAGGTTT'
p3878
I2365
tp3879
a(S'CGGTATGGCT'
p3880
I3737
tp3881
a(S'CGGTATTGCT'
p3882
I2950
tp3883
a(S'CGGTCAAAAA'
p3884
I3001
tp3885
a(S'CGGTGCACTT'
p3886
I4776
tp3887
a(S'CGGTGGCATT'
p3888
I3019
tp3889
a(S'CGGTTAAAGC'
p3890
I729
tp3891
a(S'CGGTTAATGC'
p3892
I2536
tp3893
a(S'CGGTTACGCA'
p3894
I4371
tp3895
a(S'CGGTTATCGC'
p3896
I1103
tp3897
a(S'CGGTTCCGAC'
p3898
I2686
tp3899
a(S'CGTAAAGGCG'
p3900
I919
tp3901
a(S'CGTACCGAGG'
p3902
I1429
tp3903
a(S'CGTACGCCGG'
p3904
I2793
tp3905
a(S'CGTACGTTTC'
p3906
I412
tp3907
a(S'CGTACTTATT'
p3908
I2148
tp3909
a(S'CGTAGAGGCT'
p3910
I4505
tp3911
a(S'CGTATCCAAC'
p3912
I5371
tp3913
a(S'CGTATCGAGG'
p3914
I4034
tp3915
a(S'CGTATGCAGG'
p3916
I4160
tp3917
a(S'CGTATGCCGC'
p3918
I1027
tp3919
a(S'CGTATGGTTC'
p3920
I4664
tp3921
a(S'CGTATGTTTC'
p3922
I2069
tp3923
a(S'CGTCAAAAAT'
p3924
I815
tp3925
a(S'CGTCAACATT'
p3926
I652
tp3927
a(S'CGTCAACGTT'
p3928
I2509
tp3929
a(S'CGTCAAGGAC'
p3930
I263
tp3931
a(S'CGTCAAGGAC'
p3932
I2759
tp3933
a(S'CGTCACGTTT'
p3934
I1222
tp3935
a(S'CGTCACTGAT'
p3936
I3787
tp3937
a(S'CGTCAGGATT'
p3938
I3918
tp3939
a(S'CGTCATTGCT'
p3940
I628
tp3941
a(S'CGTCCGCAGC'
p3942
I886
tp3943
a(S'CGTCCGGTTA'
p3944
I725
tp3945
a(S'CGTCCTTCCC'
p3946
I2783
tp3947
a(S'CGTCCTTTAC'
p3948
I1699
tp3949
a(S'CGTCGAGCGT'
p3950
I718
tp3951
a(S'CGTCGCTGCG'
p3952
I542
tp3953
a(S'CGTCGGGTAC'
p3954
I4829
tp3955
a(S'CGTCGTGGCC'
p3956
I1165
tp3957
a(S'CGTCGTTAGG'
p3958
I1766
tp3959
a(S'CGTCTAAGAA'
p3960
I2018
tp3961
a(S'CGTCTATTAT'
p3962
I3561
tp3963
a(S'CGTCTTATTA'
p3964
I1078
tp3965
a(S'CGTCTTCATT'
p3966
I4760
tp3967
a(S'CGTCTTTCTC'
p3968
I1150
tp3969
a(S'CGTCTTTGGT'
p3970
I931
tp3971
a(S'CGTGAAATTT'
p3972
I1978
tp3973
a(S'CGTGACTATT'
p3974
I4640
tp3975
a(S'CGTGATAAAA'
p3976
I2279
tp3977
a(S'CGTGATATTG'
p3978
I4652
tp3979
a(S'CGTGATGAGT'
p3980
I4229
tp3981
a(S'CGTGATTACT'
p3982
I1624
tp3983
a(S'CGTGATTATC'
p3984
I3281
tp3985
a(S'CGTGCGGAAG'
p3986
I827
tp3987
a(S'CGTGCGTCAA'
p3988
I811
tp3989
a(S'CGTGCTCGTC'
p3990
I536
tp3991
a(S'CGTGCTGGTG'
p3992
I3326
tp3993
a(S'CGTGGATGCC'
p3994
I1415
tp3995
a(S'CGTGGATTAC'
p3996
I336
tp3997
a(S'CGTGGCCTTA'
p3998
I4872
tp3999
a(S'CGTGGCCTTG'
p4000
I1168
tp4001
a(S'CGTGTACGCG'
p4002
I764
tp4003
a(S'CGTGTTCAAC'
p4004
I1789
tp4005
a(S'CGTTAACAAA'
p4006
I5020
tp4007
a(S'CGTTACCATG'
p4008
I1642
tp4009
a(S'CGTTAGGCCA'
p4010
I1769
tp4011
a(S'CGTTATATTT'
p4012
I2515
tp4013
a(S'CGTTATGCGC'
p4014
I2056
tp4015
a(S'CGTTATGGTT'
p4016
I1471
tp4017
a(S'CGTTCAACCA'
p4018
I5229
tp4019
a(S'CGTTCAGTTG'
p4020
I2190
tp4021
a(S'CGTTCGTCAA'
p4022
I259
tp4023
a(S'CGTTCGTGAT'
p4024
I4225
tp4025
a(S'CGTTCTGGCG'
p4026
I865
tp4027
a(S'CGTTCTGGTG'
p4028
I2005
tp4029
a(S'CGTTCTGGTT'
p4030
I4931
tp4031
a(S'CGTTCTTACT'
p4032
I787
tp4033
a(S'CGTTCTTATT'
p4034
I3986
tp4035
a(S'CGTTGACCCT'
p4036
I4810
tp4037
a(S'CGTTGAGGCT'
p4038
I550
tp4039
a(S'CGTTGAGTTC'
p4040
I4171
tp4041
a(S'CGTTGCAGGC'
p4042
I3189
tp4043
a(S'CGTTGCGAGG'
p4044
I896
tp4045
a(S'CGTTGCGTCT'
p4046
I3556
tp4047
a(S'CGTTGCTGCC'
p4048
I1483
tp4049
a(S'CGTTGGATGA'
p4050
I223
tp4051
a(S'CGTTGGCGCT'
p4052
I1137
tp4053
a(S'CGTTGGCTGA'
p4054
I4590
tp4055
a(S'CGTTTACCTT'
p4056
I753
tp4057
a(S'CGTTTATCGC'
p4058
I2235
tp4059
a(S'CGTTTATGGT'
p4060
I562
tp4061
a(S'CGTTTATGGT'
p4062
I1227
tp4063
a(S'CGTTTATGTT'
p4064
I2810
tp4065
a(S'CGTTTCCAGA'
p4066
I416
tp4067
a(S'CGTTTCTGAT'
p4068
I3211
tp4069
a(S'CGTTTCTTTG'
p4070
I1822
tp4071
a(S'CGTTTGATGA'
p4072
I4526
tp4073
a(S'CGTTTTATGA'
p4074
I4614
tp4075
a(S'CGTTTTCCGC'
p4076
I1870
tp4077
a(S'CGTTTTGGAT'
p4078
I463
tp4079
a(S'CGTTTTGGCG'
p4080
I5302
tp4081
a(S'CGTTTTTGAC'
p4082
I4573
tp4083
a(S'CTAAAAACCA'
p4084
I5087
tp4085
a(S'CTAAAATGCA'
p4086
I3393
tp4087
a(S'CTAAAGAATG'
p4088
I5067
tp4089
a(S'CTAAAGAGAT'
p4090
I1889
tp4091
a(S'CTAAAGCTAC'
p4092
I2497
tp4093
a(S'CTAAAGCTGG'
p4094
I3159
tp4095
a(S'CTAAAGGCAA'
p4096
I908
tp4097
a(S'CTAAAGGTAA'
p4098
I851
tp4099
a(S'CTAAAGGTCT'
p4100
I5052
tp4101
a(S'CTAAAGGTGA'
p4102
I4959
tp4103
a(S'CTAAAGGTGC'
p4104
I1913
tp4105
a(S'CTAAATACGT'
p4106
I5013
tp4107
a(S'CTAAATGCCG'
p4108
I2851
tp4109
a(S'CTAAATTGTT'
p4110
I2985
tp4111
a(S'CTAAATTTTT'
p4112
I2647
tp4113
a(S'CTAACCCTAA'
p4114
I1439
tp4115
a(S'CTAACCCTGA'
p4116
I3114
tp4117
a(S'CTAACGATTC'
p4118
I198
tp4119
a(S'CTAACTTTAC'
p4120
I2836
tp4121
a(S'CTAAGAAGTT'
p4122
I2021
tp4123
a(S'CTAAGCATTT'
p4124
I1361
tp4125
a(S'CTAATAGGTA'
p4126
I372
tp4127
a(S'CTAATATTCA'
p4128
I1004
tp4129
a(S'CTAATCAGGT'
p4130
I2599
tp4131
a(S'CTAATCTCTG'
p4132
I1721
tp4133
a(S'CTAATGAGCT'
p4134
I1445
tp4135
a(S'CTAATGATTC'
p4136
I4695
tp4137
a(S'CTAATGGCCG'
p4138
I4752
tp4139
a(S'CTAATGTCGT'
p4140
I3780
tp4141
a(S'CTAATGTTCC'
p4142
I3105
tp4143
a(S'CTAATTTGCA'
p4144
I1601
tp4145
a(S'CTAATTTGTC'
p4146
I3897
tp4147
a(S'CTAATTTTGG'
p4148
I4818
tp4149
a(S'CTACAATGTG'
p4150
I4282
tp4151
a(S'CTACACGCAG'
p4152
I4909
tp4153
a(S'CTACAGGTAG'
p4154
I4800
tp4155
a(S'CTACATCGTC'
p4156
I2503
tp4157
a(S'CTACCACATC'
p4158
I1559
tp4159
a(S'CTACCAGTTA'
p4160
I4980
tp4161
a(S'CTACCCTCCC'
p4162
I2695
tp4163
a(S'CTACCGATAA'
p4164
I3045
tp4165
a(S'CTACTAAATG'
p4166
I2848
tp4167
a(S'CTACTCCGGT'
p4168
I1097
tp4169
a(S'CTACTCTTTC'
p4170
I4077
tp4171
a(S'CTACTGACCG'
p4172
I522
tp4173
a(S'CTACTGCAAA'
p4174
I3762
tp4175
a(S'CTACTGCGAC'
p4176
I1880
tp4177
a(S'CTACTGCTCG'
p4178
I3546
tp4179
a(S'CTACTGCTTG'
p4180
I86
tp4181
a(S'CTACTGGTTA'
p4182
I1298
tp4183
a(S'CTACTGTAGA'
p4184
I1187
tp4185
a(S'CTACTTCCCA'
p4186
I5105
tp4187
a(S'CTAGGAAATA'
p4188
I3906
tp4189
a(S'CTAGGAGCTA'
p4190
I5060
tp4191
a(S'CTAGTTTTGT'
p4192
I3135
tp4193
a(S'CTATAAACAT'
p4194
I1803
tp4195
a(S'CTATAACAAC'
p4196
I1392
tp4197
a(S'CTATAGACCA'
p4198
I4317
tp4199
a(S'CTATCAGTAT'
p4200
I4717
tp4201
a(S'CTATCCTTGC'
p4202
I147
tp4203
a(S'CTATCTGAGT'
p4204
I345
tp4205
a(S'CTATGAAATC'
p4206
I4494
tp4207
a(S'CTATGAAGGA'
p4208
I1988
tp4209
a(S'CTATGATGTT'
p4210
I1740
tp4211
a(S'CTATGATGTT'
p4212
I2711
tp4213
a(S'CTATGGCTAA'
p4214
I3153
tp4215
a(S'CTATGTGGCT'
p4216
I5005
tp4217
a(S'CTATGTTTAC'
p4218
I1847
tp4219
a(S'CTATTAAGCT'
p4220
I438
tp4221
a(S'CTATTATGGA'
p4222
I3564
tp4223
a(S'CTATTCAGCG'
p4224
I4518
tp4225
a(S'CTATTGACAT'
p4226
I1568
tp4227
a(S'CTATTGACGT'
p4228
I2776
tp4229
a(S'CTATTGACTC'
p4230
I1178
tp4231
a(S'CTATTGAGGC'
p4232
I4056
tp4233
a(S'CTATTGCTGG'
p4234
I2940
tp4235
a(S'CTATTTTAAA'
p4236
I1401
tp4237
a(S'CTATTTTCGT'
p4238
I4645
tp4239
a(S'CTCAAAAACA'
p4240
I1495
tp4241
a(S'CTCAAAAAGA'
p4242
I3444
tp4243
a(S'CTCAAACGGC'
p4244
I3636
tp4245
a(S'CTCAAATTTA'
p4246
I5336
tp4247
a(S'CTCAAGCTCA'
p4248
I3630
tp4249
a(S'CTCAATCCCC'
p4250
I4086
tp4251
a(S'CTCACAATGA'
p4252
I5162
tp4253
a(S'CTCACGTTGG'
p4254
I4586
tp4255
a(S'CTCACTAAAA'
p4256
I5083
tp4257
a(S'CTCACTTCTG'
p4258
I2451
tp4259
a(S'CTCATATTGG'
p4260
I3750
tp4261
a(S'CTCATCATGG'
p4262
I674
tp4263
a(S'CTCATCGTCA'
p4264
I1217
tp4265
a(S'CTCATGCTGA'
p4266
I4551
tp4267
a(S'CTCATTCAGG'
p4268
I446
tp4269
a(S'CTCCAAATCT'
p4270
I3957
tp4271
a(S'CTCCACTATG'
p4272
I4489
tp4273
a(S'CTCCAGCCAC'
p4274
I2904
tp4275
a(S'CTCCAGCTTC'
p4276
I2464
tp4277
a(S'CTCCATTGCG'
p4278
I1157
tp4279
a(S'CTCCCAATTG'
p4280
I3934
tp4281
a(S'CTCCCCCAAC'
p4282
I4292
tp4283
a(S'CTCCCGACTG'
p4284
I1282
tp4285
a(S'CTCCCGACTG'
p4286
I2700
tp4287
a(S'CTCCGCTTCC'
p4288
I1514
tp4289
a(S'CTCCGGTGGC'
p4290
I3016
tp4291
a(S'CTCCGGTTAT'
p4292
I1100
tp4293
a(S'CTCCGTCTTT'
p4294
I1147
tp4295
a(S'CTCCTCTCCC'
p4296
I1277
tp4297
a(S'CTCCTGAGAC'
p4298
I1523
tp4299
a(S'CTCCTGCTTA'
p4300
I2078
tp4301
a(S'CTCCTGTTGA'
p4302
I606
tp4303
a(S'CTCCTTCGAG'
p4304
I1119
tp4305
a(S'CTCGAGAAGC'
p4306
I161
tp4307
a(S'CTCGCAAGGT'
p4308
I3684
tp4309
a(S'CTCGCCAAAT'
p4310
I1541
tp4311
a(S'CTCGCCATAA'
p4312
I2413
tp4313
a(S'CTCGCCCTGG'
p4314
I875
tp4315
a(S'CTCGCGATTC'
p4316
I2258
tp4317
a(S'CTCGCGTTGC'
p4318
I3552
tp4319
a(S'CTCGCTTTCC'
p4320
I594
tp4321
a(S'CTCGTCGCTG'
p4322
I540
tp4323
a(S'CTCGTCTTTG'
p4324
I929
tp4325
a(S'CTCGTGATTA'
p4326
I3279
tp4327
a(S'CTCGTGCTCG'
p4328
I534
tp4329
a(S'CTCGTTATGG'
p4330
I1469
tp4331
a(S'CTCTAATCTC'
p4332
I1719
tp4333
a(S'CTCTAATGTT'
p4334
I3103
tp4335
a(S'CTCTAATTTG'
p4336
I3895
tp4337
a(S'CTCTACTGTA'
p4338
I1185
tp4339
a(S'CTCTATTAAG'
p4340
I436
tp4341
a(S'CTCTCACGTT'
p4342
I4584
tp4343
a(S'CTCTCCCGAC'
p4344
I1280
tp4345
a(S'CTCTCCGTCT'
p4346
I1145
tp4347
a(S'CTCTCGTGCT'
p4348
I532
tp4349
a(S'CTCTGCTGGT'
p4350
I3346
tp4351
a(S'CTCTGGGCAT'
p4352
I1726
tp4353
a(S'CTCTTAAACC'
p4354
I4044
tp4355
a(S'CTCTTAAGGA'
p4356
I4410
tp4357
a(S'CTCTTACTTT'
p4358
I170
tp4359
a(S'CTCTTATGAC'
p4360
I1680
tp4361
a(S'CTCTTCTCAT'
p4362
I3745
tp4363
a(S'CTCTTGCGCT'
p4364
I1856
tp4365
a(S'CTCTTGCTGG'
p4366
I2964
tp4367
a(S'CTCTTGGAAG'
p4368
I4136
tp4369
a(S'CTCTTGTTGA'
p4370
I313
tp4371
a(S'CTCTTTCTCA'
p4372
I4080
tp4373
a(S'CTGAACAATC'
p4374
I402
tp4375
a(S'CTGAACGCCC'
p4376
I4401
tp4377
a(S'CTGAATCAGG'
p4378
I2874
tp4379
a(S'CTGAATGTCA'
p4380
I4002
tp4381
a(S'CTGAATTGTT'
p4382
I741
tp4383
a(S'CTGAATTTAC'
p4384
I690
tp4385
a(S'CTGACAACCG'
p4386
I1691
tp4387
a(S'CTGACCAAAC'
p4388
I1757
tp4389
a(S'CTGACCAAGA'
p4390
I1613
tp4391
a(S'CTGACCGCTC'
p4392
I525
tp4393
a(S'CTGACCGTAC'
p4394
I1424
tp4395
a(S'CTGACGACCG'
p4396
I4596
tp4397
a(S'CTGACGAGTA'
p4398
I497
tp4399
a(S'CTGACGCAGA'
p4400
I795
tp4401
a(S'CTGACGCGTT'
p4402
I217
tp4403
a(S'CTGACGTTCG'
p4404
I4221
tp4405
a(S'CTGACGTTCT'
p4406
I783
tp4407
a(S'CTGAGAAGTT'
p4408
I4251
tp4409
a(S'CTGAGACTGA'
p4410
I1526
tp4411
a(S'CTGAGCATGG'
p4412
I1835
tp4413
a(S'CTGAGCTTAA'
p4414
I3306
tp4415
a(S'CTGAGCTTTC'
p4416
I1532
tp4417
a(S'CTGAGGGGTT'
p4418
I2341
tp4419
a(S'CTGAGGGTCA'
p4420
I2039
tp4421
a(S'CTGAGGTTGA'
p4422
I3699
tp4423
a(S'CTGAGTATGG'
p4424
I4737
tp4425
a(S'CTGAGTCCGA'
p4426
I349
tp4427
a(S'CTGATAAAGG'
p4428
I3261
tp4429
a(S'CTGATAAGCT'
p4430
I2437
tp4431
a(S'CTGATAAGTT'
p4432
I3216
tp4433
a(S'CTGATACCAA'
p4434
I1343
tp4435
a(S'CTGATATTGC'
p4436
I2623
tp4437
a(S'CTGATGAGGC'
p4438
I3120
tp4439
a(S'CTGATGAGTC'
p4440
I47
tp4441
a(S'CTGATGCTGC'
p4442
I3792
tp4443
a(S'CTGATGCTTC'
p4444
I3336
tp4445
a(S'CTGATGGTAT'
p4446
I3882
tp4447
a(S'CTGATGGTTG'
p4448
I4557
tp4449
a(S'CTGATTATTT'
p4450
I4014
tp4451
a(S'CTGCAAAGGA'
p4452
I3765
tp4453
a(S'CTGCAAGCTG'
p4454
I1585
tp4455
a(S'CTGCATTTCC'
p4456
I3297
tp4457
a(S'CTGCCATCTC'
p4458
I1488
tp4459
a(S'CTGCCATTCA'
p4460
I3090
tp4461
a(S'CTGCCGACCA'
p4462
I2248
tp4463
a(S'CTGCCGAGGG'
p4464
I4677
tp4465
a(S'CTGCCGCTGA'
p4466
I3255
tp4467
a(S'CTGCCGTCAT'
p4468
I624
tp4469
a(S'CTGCCGTTTC'
p4470
I3207
tp4471
a(S'CTGCCGTTTT'
p4472
I459
tp4473
a(S'CTGCCTATGA'
p4474
I2707
tp4475
a(S'CTGCGACTAA'
p4476
I1883
tp4477
a(S'CTGCGTTGAG'
p4478
I547
tp4479
a(S'CTGCTAAAGG'
p4480
I5049
tp4481
a(S'CTGCTATCAG'
p4482
I4714
tp4483
a(S'CTGCTATTGA'
p4484
I4053
tp4485
a(S'CTGCTCAAAT'
p4486
I5333
tp4487
a(S'CTGCTCCGCT'
p4488
I1511
tp4489
a(S'CTGCTCCTGT'
p4490
I603
tp4491
a(S'CTGCTCGCGT'
p4492
I3549
tp4493
a(S'CTGCTCTTGC'
p4494
I2961
tp4495
a(S'CTGCTGAACG'
p4496
I4398
tp4497
a(S'CTGCTGCATT'
p4498
I3294
tp4499
a(S'CTGCTGGCGG'
p4500
I119
tp4501
a(S'CTGCTGGTAT'
p4502
I3348
tp4503
a(S'CTGCTTAGGA'
p4504
I2376
tp4505
a(S'CTGCTTATCA'
p4506
I2081
tp4507
a(S'CTGCTTATGC'
p4508
I1592
tp4509
a(S'CTGCTTCTGA'
p4510
I4215
tp4511
a(S'CTGCTTCTGG'
p4512
I3798
tp4513
a(S'CTGCTTGTTT'
p4514
I89
tp4515
a(S'CTGGAAAGAC'
p4516
I3865
tp4517
a(S'CTGGACAATC'
p4518
I3404
tp4519
a(S'CTGGACTTTG'
p4520
I575
tp4521
a(S'CTGGAGGCCT'
p4522
I4481
tp4523
a(S'CTGGCACTTC'
p4524
I3198
tp4525
a(S'CTGGCATTCA'
p4526
I3459
tp4527
a(S'CTGGCGACCC'
p4528
I1943
tp4529
a(S'CTGGCGACTC'
p4530
I1112
tp4531
a(S'CTGGCGCCGA'
p4532
I1016
tp4533
a(S'CTGGCGCTCG'
p4534
I869
tp4535
a(S'CTGGCGGAAA'
p4536
I122
tp4537
a(S'CTGGCGGTAT'
p4538
I2946
tp4539
a(S'CTGGCTATGA'
p4540
I1736
tp4541
a(S'CTGGCTGCTG'
p4542
I4394
tp4543
a(S'CTGGGAAAAG'
p4544
I5279
tp4545
a(S'CTGGGCATCT'
p4546
I1728
tp4547
a(S'CTGGGTTACG'
p4548
I5210
tp4549
a(S'CTGGTAAAGG'
p4550
I3165
tp4551
a(S'CTGGTAATGG'
p4552
I2545
tp4553
a(S'CTGGTATGGT'
p4554
I3351
tp4555
a(S'CTGGTATTAA'
p4556
I3078
tp4557
a(S'CTGGTCAGAT'
p4558
I1064
tp4559
a(S'CTGGTCAGTA'
p4560
I3645
tp4561
a(S'CTGGTCGTCC'
p4562
I881
tp4563
a(S'CTGGTCGTGT'
p4564
I1784
tp4565
a(S'CTGGTGATTC'
p4566
I2009
tp4567
a(S'CTGGTGATTT'
p4568
I2129
tp4569
a(S'CTGGTGCTAT'
p4570
I3147
tp4571
a(S'CTGGTGCTGA'
p4572
I3330
tp4573
a(S'CTGGTGGCGC'
p4574
I2970
tp4575
a(S'CTGGTGTGGT'
p4576
I3804
tp4577
a(S'CTGGTTATAT'
p4578
I1301
tp4579
a(S'CTGGTTCTCA'
p4580
I2445
tp4581
a(S'CTGGTTGGTT'
p4582
I4935
tp4583
a(S'CTGGTTTAGA'
p4584
I272
tp4585
a(S'CTGTAGACAT'
p4586
I1190
tp4587
a(S'CTGTAGCCGA'
p4588
I5292
tp4589
a(S'CTGTAGGCAT'
p4590
I3060
tp4591
a(S'CTGTCAAAAA'
p4592
I207
tp4593
a(S'CTGTCAACGC'
p4594
I2587
tp4595
a(S'CTGTCCACGG'
p4596
I5177
tp4597
a(S'CTGTCGCTAC'
p4598
I5099
tp4599
a(S'CTGTCTCATC'
p4600
I670
tp4601
a(S'CTGTCTTTTC'
p4602
I4151
tp4603
a(S'CTGTGACGAC'
p4604
I5319
tp4605
a(S'CTGTGCCGCG'
p4606
I1814
tp4607
a(S'CTGTGTGACT'
p4608
I2768
tp4609
a(S'CTGTTAACAC'
p4610
I1289
tp4611
a(S'CTGTTACTCC'
p4612
I2458
tp4613
a(S'CTGTTACTGA'
p4614
I4245
tp4615
a(S'CTGTTCAACC'
p4616
I361
tp4617
a(S'CTGTTCAGAA'
p4618
I5120
tp4619
a(S'CTGTTGAGTT'
p4620
I609
tp4621
a(S'CTGTTGATGC'
p4622
I4950
tp4623
a(S'CTGTTGCCGA'
p4624
I3840
tp4625
a(S'CTGTTGGTGC'
p4626
I2614
tp4627
a(S'CTGTTGGTTT'
p4628
I4995
tp4629
a(S'CTGTTTGGTT'
p4630
I2660
tp4631
a(S'CTGTTTTACA'
p4632
I2482
tp4633
a(S'CTGTTTTGTA'
p4634
I1952
tp4635
a(S'CTTAAACCTG'
p4636
I4046
tp4637
a(S'CTTAAAGCTA'
p4638
I4973
tp4639
a(S'CTTAACGCTA'
p4640
I1906
tp4641
a(S'CTTAAGGATA'
p4642
I4412
tp4643
a(S'CTTAAGTGAG'
p4644
I2913
tp4645
a(S'CTTAATATGC'
p4646
I243
tp4647
a(S'CTTAATCAAG'
p4648
I1453
tp4649
a(S'CTTAATCCAA'
p4650
I5191
tp4651
a(S'CTTAATGCTT'
p4652
I3311
tp4653
a(S'CTTACCAAGC'
p4654
I5201
tp4655
a(S'CTTACTAAAA'
p4656
I3389
tp4657
a(S'CTTACTCAAG'
p4658
I3626
tp4659
a(S'CTTACTGACG'
p4660
I791
tp4661
a(S'CTTACTTGAG'
p4662
I982
tp4663
a(S'CTTACTTTGC'
p4664
I172
tp4665
a(S'CTTAGGAGTT'
p4666
I2379
tp4667
a(S'CTTAGTTCAT'
p4668
I3709
tp4669
a(S'CTTATACCGA'
p4670
I1928
tp4671
a(S'CTTATCAACA'
p4672
I3528
tp4673
a(S'CTTATCACCT'
p4674
I2084
tp4675
a(S'CTTATGACGC'
p4676
I1682
tp4677
a(S'CTTATGCTAA'
p4678
I1595
tp4679
a(S'CTTATGGTTA'
p4680
I4878
tp4681
a(S'CTTATTACCA'
p4682
I1081
tp4683
a(S'CTTATTACCC'
p4684
I3990
tp4685
a(S'CTTATTATGT'
p4686
I636
tp4687
a(S'CTTATTCGCC'
p4688
I2152
tp4689
a(S'CTTCACGCCA'
p4690
I3477
tp4691
a(S'CTTCATGCAG'
p4692
I1632
tp4693
a(S'CTTCATTGCA'
p4694
I2562
tp4695
a(S'CTTCATTTCC'
p4696
I4763
tp4697
a(S'CTTCATTTGG'
p4698
I1661
tp4699
a(S'CTTCCATAAG'
p4700
I4105
tp4701
a(S'CTTCCATGAC'
p4702
I11
tp4703
a(S'CTTCCCAAGA'
p4704
I5108
tp4705
a(S'CTTCCCATTC'
p4706
I2103
tp4707
a(S'CTTCCCCGTA'
p4708
I2787
tp4709
a(S'CTTCCTACAG'
p4710
I4796
tp4711
a(S'CTTCCTCCTG'
p4712
I1519
tp4713
a(S'CTTCCTCTGC'
p4714
I3342
tp4715
a(S'CTTCCTTGCT'
p4716
I1056
tp4717
a(S'CTTCGAGATG'
p4718
I1122
tp4719
a(S'CTTCGATAAA'
p4720
I5352
tp4721
a(S'CTTCGGCACC'
p4722
I2473
tp4723
a(S'CTTCGGCCCC'
p4724
I973
tp4725
a(S'CTTCGGGATG'
p4726
I5146
tp4727
a(S'CTTCGGTTCC'
p4728
I2683
tp4729
a(S'CTTCGTATGT'
p4730
I2066
tp4731
a(S'CTTCGTGATA'
p4732
I2276
tp4733
a(S'CTTCTACCAC'
p4734
I1556
tp4735
a(S'CTTCTCATAT'
p4736
I3747
tp4737
a(S'CTTCTGAATG'
p4738
I3999
tp4739
a(S'CTTCTGACGT'
p4740
I4218
tp4741
a(S'CTTCTGCCGT'
p4742
I456
tp4743
a(S'CTTCTGCCGT'
p4744
I3204
tp4745
a(S'CTTCTGCTCT'
p4746
I2958
tp4747
a(S'CTTCTGGTGA'
p4748
I2126
tp4749
a(S'CTTCTGGTGT'
p4750
I3801
tp4751
a(S'CTTCTGTTAC'
p4752
I2455
tp4753
a(S'CTTCTTCGGC'
p4754
I2470
tp4755
a(S'CTTCTTCGGT'
p4756
I2680
tp4757
a(S'CTTCTTGAAG'
p4758
I2092
tp4759
a(S'CTTCTTGAAG'
p4760
I3176
tp4761
a(S'CTTGAAGGCT'
p4762
I2095
tp4763
a(S'CTTGAAGGTA'
p4764
I3179
tp4765
a(S'CTTGAGGATA'
p4766
I986
tp4767
a(S'CTTGATAAAG'
p4768
I67
tp4769
a(S'CTTGATATTA'
p4770
I4301
tp4771
a(S'CTTGATTTGG'
p4772
I3227
tp4773
a(S'CTTGCAAAAT'
p4774
I4861
tp4775
a(S'CTTGCCGCCG'
p4776
I1968
tp4777
a(S'CTTGCGCAGC'
p4778
I152
tp4779
a(S'CTTGCGCTTG'
p4780
I1858
tp4781
a(S'CTTGCGTGTA'
p4782
I760
tp4783
a(S'CTTGCGTTTA'
p4784
I558
tp4785
a(S'CTTGCTACCG'
p4786
I3041
tp4787
a(S'CTTGCTATTG'
p4788
I1174
tp4789
a(S'CTTGCTGCCG'
p4790
I4673
tp4791
a(S'CTTGCTGCTA'
p4792
I5045
tp4793
a(S'CTTGCTGCTG'
p4794
I3290
tp4795
a(S'CTTGCTGGTC'
p4796
I1060
tp4797
a(S'CTTGCTGGTG'
p4798
I2966
tp4799
a(S'CTTGCTTATC'
p4800
I3524
tp4801
a(S'CTTGGAACAA'
p4802
I3852
tp4803
a(S'CTTGGAAGAG'
p4804
I4138
tp4805
a(S'CTTGGAGGCT'
p4806
I3965
tp4807
a(S'CTTGGCACGA'
p4808
I1327
tp4809
a(S'CTTGGCACGT'
p4810
I252
tp4811
a(S'CTTGGCTTCC'
p4812
I1051
tp4813
a(S'CTTGGCTTCC'
p4814
I4100
tp4815
a(S'CTTGGGAGCG'
p4816
I3318
tp4817
a(S'CTTGGTGGCA'
p4818
I3242
tp4819
a(S'CTTGTCATGC'
p4820
I1708
tp4821
a(S'CTTGTGGCAT'
p4822
I4065
tp4823
a(S'CTTGTTCGTT'
p4824
I1864
tp4825
a(S'CTTGTTGACA'
p4826
I315
tp4827
a(S'CTTGTTTACG'
p4828
I92
tp4829
a(S'CTTTACCGCT'
p4830
I2840
tp4831
a(S'CTTTACTTGT'
p4832
I1703
tp4833
a(S'CTTTATGCGG'
p4834
I4783
tp4835
a(S'CTTTCCAAGC'
p4836
I3584
tp4837
a(S'CTTTCCCATC'
p4838
I1042
tp4839
a(S'CTTTCCTGCT'
p4840
I598
tp4841
a(S'CTTTCGCCAT'
p4842
I185
tp4843
a(S'CTTTCGGATA'
p4844
I34
tp4845
a(S'CTTTCTCAAT'
p4846
I4082
tp4847
a(S'CTTTCTCCAT'
p4848
I1153
tp4849
a(S'CTTTCTCGCC'
p4850
I1537
tp4851
a(S'CTTTGAATGG'
p4852
I2725
tp4853
a(S'CTTTGACTTA'
p4854
I1922
tp4855
a(S'CTTTGAGCGT'
p4856
I4027
tp4857
a(S'CTTTGAGTCT'
p4858
I2672
tp4859
a(S'CTTTGCGACC'
p4860
I176
tp4861
a(S'CTTTGCGTGA'
p4862
I4635
tp4863
a(S'CTTTGCTATT'
p4864
I4513
tp4865
a(S'CTTTGGCCTC'
p4866
I429
tp4867
a(S'CTTTGGTATG'
p4868
I934
tp4869
a(S'CTTTGTGGGA'
p4870
I580
tp4871
a(S'CTTTGTTCCT'
p4872
I1827
tp4873
a(S'CTTTTATTTC'
p4874
I2404
tp4875
a(S'CTTTTCGTAT'
p4876
I4155
tp4877
a(S'CTTTTCTTGG'
p4878
I1322
tp4879
a(S'CTTTTGATGC'
p4880
I2632
tp4881
a(S'CTTTTTATGT'
p4882
I1205
tp4883
a(S'CTTTTTCACG'
p4884
I4923
tp4885
a(S'CTTTTTTATG'
p4886
I3973
tp4887
a(S'CTTTTTTTCT'
p4888
I2429
tp4889
a(S'GAAAAATGGT'
p4890
I4343
tp4891
a(S'GAAAAATTAT'
p4892
I57
tp4893
a(S'GAAAACACCA'
p4894
I3572
tp4895
a(S'GAAAACATTA'
p4896
I701
tp4897
a(S'GAAAACGTGC'
p4898
I806
tp4899
a(S'GAAAAGTTAC'
p4900
I5283
tp4901
a(S'GAAAATGAGA'
p4902
I128
tp4903
a(S'GAAAATGCTC'
p4904
I5155
tp4905
a(S'GAAAATTCGA'
p4906
I136
tp4907
a(S'GAAACACTGA'
p4908
I777
tp4909
a(S'GAAAGACCAG'
p4910
I3493
tp4911
a(S'GAAAGACGGT'
p4912
I3868
tp4913
a(S'GAAAGAGATT'
p4914
I3415
tp4915
a(S'GAAAGGATAC'
p4916
I3270
tp4917
a(S'GAAAGGTATT'
p4918
I4450
tp4919
a(S'GAAATAACCG'
p4920
I3910
tp4921
a(S'GAAATCATGA'
p4922
I383
tp4923
a(S'GAAATCGCGT'
p4924
I4498
tp4925
a(S'GAAATGACTC'
p4926
I3677
tp4927
a(S'GAAATTTCTA'
p4928
I1981
tp4929
a(S'GAACAACTCA'
p4930
I5077
tp4931
a(S'GAACAATCCG'
p4932
I404
tp4933
a(S'GAACAATTTC'
p4934
I3856
tp4935
a(S'GAACAGTGGA'
p4936
I1237
tp4937
a(S'GAACCGCCTT'
p4938
I2119
tp4939
a(S'GAACGAGAAG'
p4940
I4360
tp4941
a(S'GAACGCAAAA'
p4942
I5251
tp4943
a(S'GAACGCCCTC'
p4944
I4403
tp4945
a(S'GAACGCGTAC'
p4946
I2143
tp4947
a(S'GAACGTGATT'
p4948
I1621
tp4949
a(S'GAACTGACCA'
p4950
I1754
tp4951
a(S'GAAGAAAACG'
p4952
I803
tp4953
a(S'GAAGACGGTT'
p4954
I4366
tp4955
a(S'GAAGAGATTC'
p4956
I4142
tp4957
a(S'GAAGATGATT'
p4958
I479
tp4959
a(S'GAAGCAGAAC'
p4960
I5245
tp4961
a(S'GAAGCGCGGT'
p4962
I2359
tp4963
a(S'GAAGCGGTAA'
p4964
I2313
tp4965
a(S'GAAGCTCTTA'
p4966
I166
tp4967
a(S'GAAGCTGTTC'
p4968
I5116
tp4969
a(S'GAAGGAGTCT'
p4970
I3538
tp4971
a(S'GAAGGAGTGA'
p4972
I833
tp4973
a(S'GAAGGATGGT'
p4974
I1257
tp4975
a(S'GAAGGATGTT'
p4976
I1992
tp4977
a(S'GAAGGCGCTG'
p4978
I683
tp4979
a(S'GAAGGCTTCC'
p4980
I2098
tp4981
a(S'GAAGGGGACG'
p4982
I4334
tp4983
a(S'GAAGGTACGT'
p4984
I3182
tp4985
a(S'GAAGTGGACT'
p4986
I111
tp4987
a(S'GAAGTGGCTT'
p4988
I236
tp4989
a(S'GAAGTTAACA'
p4990
I24
tp4991
a(S'GAAGTTAATG'
p4992
I4255
tp4993
a(S'GAAGTTTAAG'
p4994
I2025
tp4995
a(S'GAATACGAAA'
p4996
I3487
tp4997
a(S'GAATAGTCAG'
p4998
I2208
tp4999
a(S'GAATATCTAT'
p5000
I1386
tp5001
a(S'GAATCAAAAA'
p5002
I3376
tp5003
a(S'GAATCAGAAT'
p5004
I5127
tp5005
a(S'GAATCAGCGG'
p5006
I3730
tp5007
a(S'GAATCAGGTT'
p5008
I2876
tp5009
a(S'GAATGAGCCG'
p5010
I5133
tp5011
a(S'GAATGCAATG'
p5012
I4534
tp5013
a(S'GAATGGAACA'
p5014
I5072
tp5015
a(S'GAATGGTCGC'
p5016
I2729
tp5017
a(S'GAATGTCACG'
p5018
I4004
tp5019
a(S'GAATTAAATC'
p5020
I101
tp5021
a(S'GAATTACTAC'
p5022
I80
tp5023
a(S'GAATTGGCAC'
p5024
I4268
tp5025
a(S'GAATTGTTCG'
p5026
I743
tp5027
a(S'GAATTTACGG'
p5028
I692
tp5029
a(S'GACAAATCTG'
p5030
I5170
tp5031
a(S'GACAAATCTG'
p5032
I5326
tp5033
a(S'GACAACCGTC'
p5034
I1693
tp5035
a(S'GACAATCAGA'
p5036
I3407
tp5037
a(S'GACACCCTCC'
p5038
I3928
tp5039
a(S'GACACCTAAA'
p5040
I2492
tp5041
a(S'GACACTCTCA'
p5042
I4580
tp5043
a(S'GACACTTCCT'
p5044
I4792
tp5045
a(S'GACAGGCTCA'
p5046
I4545
tp5047
a(S'GACATTATGG'
p5048
I1573
tp5049
a(S'GACATTTTAA'
p5050
I321
tp5051
a(S'GACATTTTTA'
p5052
I1195
tp5053
a(S'GACCAAACGT'
p5054
I1759
tp5055
a(S'GACCAAATCA'
p5056
I3665
tp5057
a(S'GACCAAGAAC'
p5058
I1615
tp5059
a(S'GACCAAGCGA'
p5060
I2351
tp5061
a(S'GACCACCGCC'
p5062
I4322
tp5063
a(S'GACCACTCGC'
p5064
I2253
tp5065
a(S'GACCAGGTAT'
p5066
I3497
tp5067
a(S'GACCAGTGTT'
p5068
I2173
tp5069
a(S'GACCATGCCG'
p5070
I1312
tp5071
a(S'GACCCTAAAT'
p5072
I2643
tp5073
a(S'GACCCTAATT'
p5074
I4814
tp5075
a(S'GACCCTGTTT'
p5076
I1948
tp5077
a(S'GACCGATTAG'
p5078
I4601
tp5079
a(S'GACCGCTCTC'
p5080
I527
tp5081
a(S'GACCGCTTTG'
p5082
I424
tp5083
a(S'GACCGTACCG'
p5084
I1426
tp5085
a(S'GACCGTTTAT'
p5086
I2232
tp5087
a(S'GACCTATAAA'
p5088
I1800
tp5089
a(S'GACCTATCCT'
p5090
I144
tp5091
a(S'GACCTTGCTG'
p5092
I5042
tp5093
a(S'GACCTTTCCC'
p5094
I1039
tp5095
a(S'GACCTTTCGC'
p5096
I182
tp5097
a(S'GACGAAAAAT'
p5098
I4340
tp5099
a(S'GACGACAAAT'
p5100
I5323
tp5101
a(S'GACGACCGAT'
p5102
I4598
tp5103
a(S'GACGACTTCT'
p5104
I1551
tp5105
a(S'GACGAGTAAC'
p5106
I499
tp5107
a(S'GACGCAGAAG'
p5108
I18
tp5109
a(S'GACGCAGAAG'
p5110
I797
tp5111
a(S'GACGCCGGAT'
p5112
I3362
tp5113
a(S'GACGCCGTTC'
p5114
I5224
tp5115
a(S'GACGCCGTTG'
p5116
I1132
tp5117
a(S'GACGCGACGC'
p5118
I5219
tp5119
a(S'GACGCGTTGG'
p5120
I219
tp5121
a(S'GACGCTGACA'
p5122
I1687
tp5123
a(S'GACGCTTTTT'
p5124
I4919
tp5125
a(S'GACGGCCATA'
p5126
I4202
tp5127
a(S'GACGGTAAAG'
p5128
I3872
tp5129
a(S'GACGGTTAAT'
p5130
I2534
tp5131
a(S'GACGGTTACG'
p5132
I4369
tp5133
a(S'GACGTCCTTC'
p5134
I2781
tp5135
a(S'GACGTTCGTG'
p5136
I4223
tp5137
a(S'GACGTTCTTA'
p5138
I785
tp5139
a(S'GACGTTTTGG'
p5140
I5300
tp5141
a(S'GACTAAAGAG'
p5142
I1887
tp5143
a(S'GACTACCCTC'
p5144
I2693
tp5145
a(S'GACTATTGAC'
p5146
I2774
tp5147
a(S'GACTATTTTC'
p5148
I4643
tp5149
a(S'GACTCAAAAA'
p5150
I3442
tp5151
a(S'GACTCCTTCG'
p5152
I1117
tp5153
a(S'GACTCGCAAG'
p5154
I3682
tp5155
a(S'GACTCTACTG'
p5156
I1183
tp5157
a(S'GACTGAGCTT'
p5158
I1530
tp5159
a(S'GACTGCCTAT'
p5160
I2705
tp5161
a(S'GACTGCTATC'
p5162
I4712
tp5163
a(S'GACTGCTCCG'
p5164
I1509
tp5165
a(S'GACTGCTGGC'
p5166
I117
tp5167
a(S'GACTGGTTTA'
p5168
I270
tp5169
a(S'GACTGTGTGA'
p5170
I2766
tp5171
a(S'GACTGTTAAC'
p5172
I1287
tp5173
a(S'GACTTAGTTC'
p5174
I3707
tp5175
a(S'GACTTATACC'
p5176
I1926
tp5177
a(S'GACTTCACGC'
p5178
I3475
tp5179
a(S'GACTTCGTGA'
p5180
I2274
tp5181
a(S'GACTTCTACC'
p5182
I1554
tp5183
a(S'GACTTCTTGA'
p5184
I3174
tp5185
a(S'GACTTGGTGG'
p5186
I3240
tp5187
a(S'GACTTTGAGC'
p5188
I4025
tp5189
a(S'GACTTTGTGG'
p5190
I578
tp5191
a(S'GACTTTTATT'
p5192
I2402
tp5193
a(S'GAGAAAATTC'
p5194
I134
tp5195
a(S'GAGAACGAGA'
p5196
I4358
tp5197
a(S'GAGAAGACGG'
p5198
I4364
tp5199
a(S'GAGAAGCTCT'
p5200
I164
tp5201
a(S'GAGAAGTGGC'
p5202
I234
tp5203
a(S'GAGAAGTTAA'
p5204
I4253
tp5205
a(S'GAGAATCAAA'
p5206
I3374
tp5207
a(S'GAGACTCAAA'
p5208
I3440
tp5209
a(S'GAGACTGAGC'
p5210
I1528
tp5211
a(S'GAGAGATGAG'
p5212
I5262
tp5213
a(S'GAGATGAGAT'
p5214
I5264
tp5215
a(S'GAGATGCAAA'
p5216
I3428
tp5217
a(S'GAGATGCTTG'
p5218
I3518
tp5219
a(S'GAGATGGACG'
p5220
I1126
tp5221
a(S'GAGATTATGC'
p5222
I3608
tp5223
a(S'GAGATTATTT'
p5224
I2892
tp5225
a(S'GAGATTCAGT'
p5226
I1894
tp5227
a(S'GAGATTCTCT'
p5228
I307
tp5229
a(S'GAGATTCTGT'
p5230
I4145
tp5231
a(S'GAGATTGAGG'
p5232
I5269
tp5233
a(S'GAGATTGCCG'
p5234
I3419
tp5235
a(S'GAGATTGCTG'
p5236
I3452
tp5237
a(S'GAGCATGGCA'
p5238
I1837
tp5239
a(S'GAGCCGCAAC'
p5240
I5137
tp5241
a(S'GAGCCGCTTA'
p5242
I4967
tp5243
a(S'GAGCGTATCG'
p5244
I4031
tp5245
a(S'GAGCGTATGC'
p5246
I1024
tp5247
a(S'GAGCGTCCGG'
p5248
I722
tp5249
a(S'GAGCGTGCTG'
p5250
I3323
tp5251
a(S'GAGCGTGGAT'
p5252
I333
tp5253
a(S'GAGCTAAAGA'
p5254
I5064
tp5255
a(S'GAGCTTAATC'
p5256
I1450
tp5257
a(S'GAGCTTAATG'
p5258
I3308
tp5259
a(S'GAGCTTACTA'
p5260
I3386
tp5261
a(S'GAGCTTTCTC'
p5262
I1534
tp5263
a(S'GAGGAGAAGT'
p5264
I231
tp5265
a(S'GAGGATAAAT'
p5266
I989
tp5267
a(S'GAGGCCGCCC'
p5268
I3125
tp5269
a(S'GAGGCCTCCA'
p5270
I4484
tp5271
a(S'GAGGCGGTCA'
p5272
I2997
tp5273
a(S'GAGGCGTTTT'
p5274
I4610
tp5275
a(S'GAGGCTAACC'
p5276
I1435
tp5277
a(S'GAGGCTCTTA'
p5278
I4040
tp5279
a(S'GAGGCTGGGA'
p5280
I5275
tp5281
a(S'GAGGCTTGCG'
p5282
I554
tp5283
a(S'GAGGCTTGTG'
p5284
I4061
tp5285
a(S'GAGGCTTTGC'
p5286
I4509
tp5287
a(S'GAGGCTTTTT'
p5288
I3969
tp5289
a(S'GAGGGGTTGA'
p5290
I2343
tp5291
a(S'GAGGGTCAGT'
p5292
I2041
tp5293
a(S'GAGGGTCGCA'
p5294
I4682
tp5295
a(S'GAGGTAAAAC'
p5296
I1670
tp5297
a(S'GAGGTACTAA'
p5298
I902
tp5299
a(S'GAGGTGATTT'
p5300
I2920
tp5301
a(S'GAGGTTATAA'
p5302
I2299
tp5303
a(S'GAGGTTGACT'
p5304
I3701
tp5305
a(S'GAGTAACAAA'
p5306
I502
tp5307
a(S'GAGTATAATT'
p5308
I4430
tp5309
a(S'GAGTATGGTA'
p5310
I4739
tp5311
a(S'GAGTCAAGTT'
p5312
I391
tp5313
a(S'GAGTCACATT'
p5314
I285
tp5315
a(S'GAGTCCGATG'
p5316
I351
tp5317
a(S'GAGTCGAAAA'
p5318
I52
tp5319
a(S'GAGTCTACTG'
p5320
I3542
tp5321
a(S'GAGTCTTCTT'
p5322
I2676
tp5323
a(S'GAGTGATGTA'
p5324
I837
tp5325
a(S'GAGTGCTTAA'
p5326
I5186
tp5327
a(S'GAGTGTGAGG'
p5328
I2293
tp5329
a(S'GAGTGTTCAA'
p5330
I4466
tp5331
a(S'GAGTTCGATA'
p5332
I4175
tp5333
a(S'GAGTTTAATC'
p5334
I2384
tp5335
a(S'GAGTTTATTG'
p5336
I614
tp5337
a(S'GAGTTTGTAT'
p5338
I4235
tp5339
a(S'GAGTTTTATC'
p5340
I0
tp5341
a(S'GATAAAAATG'
p5342
I5356
tp5343
a(S'GATAAAAGAT'
p5344
I2282
tp5345
a(S'GATAAAGCAG'
p5346
I70
tp5347
a(S'GATAAAGCTG'
p5348
I3833
tp5349
a(S'GATAAAGGAA'
p5350
I3263
tp5351
a(S'GATAAATTAT'
p5352
I992
tp5353
a(S'GATAACAATA'
p5354
I3050
tp5355
a(S'GATAACCGCA'
p5356
I4121
tp5357
a(S'GATAAGCTGG'
p5358
I2439
tp5359
a(S'GATAAGTTGC'
p5360
I3218
tp5361
a(S'GATAATCCCA'
p5362
I4622
tp5363
a(S'GATAATGGTG'
p5364
I4181
tp5365
a(S'GATACATCTG'
p5366
I2580
tp5367
a(S'GATACCAATA'
p5368
I1345
tp5369
a(S'GATACCCTCG'
p5370
I588
tp5371
a(S'GATACTCGTG'
p5372
I3275
tp5373
a(S'GATACTTGGA'
p5374
I3848
tp5375
a(S'GATAGTTTGA'
p5376
I2526
tp5377
a(S'GATATGAGTC'
p5378
I280
tp5379
a(S'GATATGGACC'
p5380
I5036
tp5381
a(S'GATATGTATG'
p5382
I4190
tp5383
a(S'GATATTAATA'
p5384
I4304
tp5385
a(S'GATATTCGCG'
p5386
I4418
tp5387
a(S'GATATTGAAG'
p5388
I5239
tp5389
a(S'GATATTGCTG'
p5390
I1936
tp5391
a(S'GATATTGCTT'
p5392
I2625
tp5393
a(S'GATATTGGTC'
p5394
I4655
tp5395
a(S'GATATTTCTA'
p5396
I3773
tp5397
a(S'GATATTTCTG'
p5398
I40
tp5399
a(S'GATATTTTTC'
p5400
I3815
tp5401
a(S'GATGAAAATG'
p5402
I5152
tp5403
a(S'GATGAATGCA'
p5404
I4531
tp5405
a(S'GATGAATTGG'
p5406
I4265
tp5407
a(S'GATGAGATTG'
p5408
I5266
tp5409
a(S'GATGAGGAGA'
p5410
I228
tp5411
a(S'GATGAGGCCG'
p5412
I3122
tp5413
a(S'GATGAGTATA'
p5414
I4427
tp5415
a(S'GATGAGTCGA'
p5416
I49
tp5417
a(S'GATGAGTGTT'
p5418
I4463
tp5419
a(S'GATGAGTTTG'
p5420
I4232
tp5421
a(S'GATGATGCTC'
p5422
I1462
tp5423
a(S'GATGATTTCG'
p5424
I482
tp5425
a(S'GATGCAAAAT'
p5426
I3430
tp5427
a(S'GATGCCGACC'
p5428
I2637
tp5429
a(S'GATGCCTGAC'
p5430
I1419
tp5431
a(S'GATGCTAAAG'
p5432
I4955
tp5433
a(S'GATGCTCGTT'
p5434
I1465
tp5435
a(S'GATGCTGCTT'
p5436
I3794
tp5437
a(S'GATGCTGGTA'
p5438
I3074
tp5439
a(S'GATGCTGTTC'
p5440
I357
tp5441
a(S'GATGCTTCCT'
p5442
I3338
tp5443
a(S'GATGCTTGCT'
p5444
I3520
tp5445
a(S'GATGGAACTG'
p5446
I1750
tp5447
a(S'GATGGACGCC'
p5448
I1128
tp5449
a(S'GATGGATAAC'
p5450
I4117
tp5451
a(S'GATGGATACA'
p5452
I2576
tp5453
a(S'GATGGTATTG'
p5454
I3884
tp5455
a(S'GATGGTGGTT'
p5456
I2742
tp5457
a(S'GATGGTGTTA'
p5458
I1261
tp5459
a(S'GATGGTTGGT'
p5460
I4559
tp5461
a(S'GATGTAATGT'
p5462
I841
tp5463
a(S'GATGTGCTTG'
p5464
I3035
tp5465
a(S'GATGTTATTT'
p5466
I1651
tp5467
a(S'GATGTTGATG'
p5468
I1744
tp5469
a(S'GATGTTTATC'
p5470
I2715
tp5471
a(S'GATGTTTTCC'
p5472
I1996
tp5473
a(S'GATTAACCCT'
p5474
I1335
tp5475
a(S'GATTAAGTTC'
p5476
I1245
tp5477
a(S'GATTACTATC'
p5478
I340
tp5479
a(S'GATTACTTCA'
p5480
I1627
tp5481
a(S'GATTAGAGGC'
p5482
I4605
tp5483
a(S'GATTATCTTG'
p5484
I3284
tp5485
a(S'GATTATGACC'
p5486
I2167
tp5487
a(S'GATTATGCGC'
p5488
I3610
tp5489
a(S'GATTATTTGT'
p5490
I2894
tp5491
a(S'GATTATTTTG'
p5492
I4016
tp5493
a(S'GATTCAATCA'
p5494
I2263
tp5495
a(S'GATTCACACG'
p5496
I4700
tp5497
a(S'GATTCAGTAC'
p5498
I1896
tp5499
a(S'GATTCGTCTA'
p5500
I2014
tp5501
a(S'GATTCTCTTG'
p5502
I309
tp5503
a(S'GATTCTGTCA'
p5504
I203
tp5505
a(S'GATTCTGTCT'
p5506
I4147
tp5507
a(S'GATTGACACC'
p5508
I3924
tp5509
a(S'GATTGAGGCT'
p5510
I5271
tp5511
a(S'GATTGAGTGT'
p5512
I2289
tp5513
a(S'GATTGCCGAG'
p5514
I3421
tp5515
a(S'GATTGCTACT'
p5516
I517
tp5517
a(S'GATTGCTGAG'
p5518
I2034
tp5519
a(S'GATTGCTGGA'
p5520
I4476
tp5521
a(S'GATTGCTGGC'
p5522
I3454
tp5523
a(S'GATTGGCGTA'
p5524
I5365
tp5525
a(S'GATTGGTCGT'
p5526
I1071
tp5527
a(S'GATTGGTTTC'
p5528
I2863
tp5529
a(S'GATTTAACCG'
p5530
I470
tp5531
a(S'GATTTATGTT'
p5532
I2925
tp5533
a(S'GATTTCGATT'
p5534
I485
tp5535
a(S'GATTTGAGAA'
p5536
I3369
tp5537
a(S'GATTTGCAAG'
p5538
I2134
tp5539
a(S'GATTTGGTTG'
p5540
I3230
tp5541
a(S'GATTTTCTGA'
p5542
I491
tp5543
a(S'GCAAAAAGAG'
p5544
I5255
tp5545
a(S'GCAAAATACG'
p5546
I4864
tp5547
a(S'GCAAAATGAG'
p5548
I3433
tp5549
a(S'GCAAACGCAG'
p5550
I3721
tp5551
a(S'GCAAAGGATA'
p5552
I3767
tp5553
a(S'GCAACAGCAG'
p5554
I3592
tp5555
a(S'GCAACCTGTG'
p5556
I5314
tp5557
a(S'GCAACTGGAC'
p5558
I3400
tp5559
a(S'GCAACTTCGG'
p5560
I5142
tp5561
a(S'GCAACTTGCC'
p5562
I1964
tp5563
a(S'GCAAGAACGC'
p5564
I2139
tp5565
a(S'GCAAGCGTAA'
p5566
I914
tp5567
a(S'GCAAGCTGCT'
p5568
I1587
tp5569
a(S'GCAAGCTGGC'
p5570
I4389
tp5571
a(S'GCAAGGCTAA'
p5572
I4689
tp5573
a(S'GCAAGGTTAG'
p5574
I3687
tp5575
a(S'GCAAGTCTGC'
p5576
I3249
tp5577
a(S'GCAATAACGT'
p5578
I2803
tp5579
a(S'GCAATCGCCG'
p5580
I4839
tp5581
a(S'GCAATCTGCC'
p5582
I2243
tp5583
a(S'GCAATGCGAC'
p5584
I4538
tp5585
a(S'GCACAAAATG'
p5586
I3509
tp5587
a(S'GCACAATGCT'
p5588
I4274
tp5589
a(S'GCACCTGTTT'
p5590
I2478
tp5591
a(S'GCACGATTAA'
p5592
I1331
tp5593
a(S'GCACGTTCGT'
p5594
I256
tp5595
a(S'GCACTATGTT'
p5596
I1844
tp5597
a(S'GCACTTCTGC'
p5598
I3201
tp5599
a(S'GCACTTTATG'
p5600
I4780
tp5601
a(S'GCAGAACGCA'
p5602
I5248
tp5603
a(S'GCAGAAGAAA'
p5604
I800
tp5605
a(S'GCAGAAGTTA'
p5606
I21
tp5607
a(S'GCAGAATCAG'
p5608
I3727
tp5609
a(S'GCAGATGGAT'
p5610
I4114
tp5611
a(S'GCAGCCGTTG'
p5612
I891
tp5613
a(S'GCAGCGTTAC'
p5614
I1638
tp5615
a(S'GCAGCTCGAG'
p5616
I157
tp5617
a(S'GCAGGAAACA'
p5618
I773
tp5619
a(S'GCAGGAATTA'
p5620
I76
tp5621
a(S'GCAGGACGCT'
p5622
I4915
tp5623
a(S'GCAGGCTGGC'
p5624
I3193
tp5625
a(S'GCAGGGCGTT'
p5626
I4165
tp5627
a(S'GCAGGGGCTT'
p5628
I966
tp5629
a(S'GCAGGTTTCC'
p5630
I3598
tp5631
a(S'GCAGTGGAAT'
p5632
I2202
tp5633
a(S'GCAGTTCGCT'
p5634
I4901
tp5635
a(S'GCAGTTTTGC'
p5636
I4378
tp5637
a(S'GCATACTGAC'
p5638
I1608
tp5639
a(S'GCATCAAGCT'
p5640
I4128
tp5641
a(S'GCATCTGGCT'
p5642
I1732
tp5643
a(S'GCATGACCTT'
p5644
I1035
tp5645
a(S'GCATGGCACT'
p5646
I1839
tp5647
a(S'GCATGGGTGA'
p5648
I3066
tp5649
a(S'GCATTCAAGG'
p5650
I3024
tp5651
a(S'GCATTCAGAT'
p5652
I2569
tp5653
a(S'GCATTCAGTC'
p5654
I3462
tp5655
a(S'GCATTTCCTG'
p5656
I3299
tp5657
a(S'GCATTTCTAC'
p5658
I4071
tp5659
a(S'GCATTTGTTT'
p5660
I1365
tp5661
a(S'GCCAAATGAC'
p5662
I1544
tp5663
a(S'GCCAAATGCT'
p5664
I3618
tp5665
a(S'GCCACCATGA'
p5666
I2159
tp5667
a(S'GCCACTCCTC'
p5668
I1273
tp5669
a(S'GCCACTTAAG'
p5670
I2909
tp5671
a(S'GCCAGAATAC'
p5672
I3483
tp5673
a(S'GCCAGTTAAA'
p5674
I4848
tp5675
a(S'GCCAGTTTTC'
p5676
I1775
tp5677
a(S'GCCATAAGGC'
p5678
I4206
tp5679
a(S'GCCATAATTC'
p5680
I2416
tp5681
a(S'GCCATCAACT'
p5682
I190
tp5683
a(S'GCCATCTCAA'
p5684
I1490
tp5685
a(S'GCCATGATGG'
p5686
I2737
tp5687
a(S'GCCATGTCTA'
p5688
I2978
tp5689
a(S'GCCATTCAAG'
p5690
I3092
tp5691
a(S'GCCCATCGCA'
p5692
I4894
tp5693
a(S'GCCCCGAAGG'
p5694
I4329
tp5695
a(S'GCCCCTAGTT'
p5696
I3131
tp5697
a(S'GCCCCTTACT'
p5698
I978
tp5699
a(S'GCCCTCTTAA'
p5700
I4407
tp5701
a(S'GCCCTGGTCG'
p5702
I878
tp5703
a(S'GCCGAAGCGG'
p5704
I2310
tp5705
a(S'GCCGACCACT'
p5706
I2250
tp5707
a(S'GCCGACCCTA'
p5708
I2640
tp5709
a(S'GCCGACGTTT'
p5710
I5297
tp5711
a(S'GCCGACTGCT'
p5712
I4709
tp5713
a(S'GCCGAGATGC'
p5714
I3425
tp5715
a(S'GCCGAGCGTA'
p5716
I1021
tp5717
a(S'GCCGAGGGTC'
p5718
I4679
tp5719
a(S'GCCGATACTT'
p5720
I3845
tp5721
a(S'GCCGCAACTT'
p5722
I5139
tp5723
a(S'GCCGCAAGCT'
p5724
I4386
tp5725
a(S'GCCGCATGAC'
p5726
I1032
tp5727
a(S'GCCGCCAGTT'
p5728
I4845
tp5729
a(S'GCCGCCCCTA'
p5730
I3128
tp5731
a(S'GCCGCCGCGT'
p5732
I1971
tp5733
a(S'GCCGCCTCCG'
p5734
I3011
tp5735
a(S'GCCGCGGATT'
p5736
I2857
tp5737
a(S'GCCGCGTGAA'
p5738
I1974
tp5739
a(S'GCCGCGTTTC'
p5740
I1818
tp5741
a(S'GCCGCTAATC'
p5742
I2595
tp5743
a(S'GCCGCTGAAT'
p5744
I737
tp5745
a(S'GCCGCTGAGG'
p5746
I2337
tp5747
a(S'GCCGCTGATA'
p5748
I3257
tp5749
a(S'GCCGCTTAAA'
p5750
I4969
tp5751
a(S'GCCGCTTTTC'
p5752
I1318
tp5753
a(S'GCCGGATTTG'
p5754
I3365
tp5755
a(S'GCCGGGCAAT'
p5756
I2798
tp5757
a(S'GCCGTCATTG'
p5758
I626
tp5759
a(S'GCCGTCTTCA'
p5760
I4758
tp5761
a(S'GCCGTGGATG'
p5762
I1413
tp5763
a(S'GCCGTTCAAC'
p5764
I5227
tp5765
a(S'GCCGTTGCGA'
p5766
I894
tp5767
a(S'GCCGTTGGCG'
p5768
I1135
tp5769
a(S'GCCGTTTCTG'
p5770
I3209
tp5771
a(S'GCCGTTTTGG'
p5772
I461
tp5773
a(S'GCCTACTGCG'
p5774
I1878
tp5775
a(S'GCCTATGATG'
p5776
I2709
tp5777
a(S'GCCTCCAAAT'
p5778
I3955
tp5779
a(S'GCCTCCACTA'
p5780
I4487
tp5781
a(S'GCCTCCGGTG'
p5782
I3014
tp5783
a(S'GCCTCTATTA'
p5784
I434
tp5785
a(S'GCCTGACCGT'
p5786
I1422
tp5787
a(S'GCCTGAGTAT'
p5788
I4735
tp5789
a(S'GCCTGTCTCA'
p5790
I668
tp5791
a(S'GCCTGTTGAT'
p5792
I4948
tp5793
a(S'GCCTGTTTGG'
p5794
I2658
tp5795
a(S'GCCTTATGGT'
p5796
I4876
tp5797
a(S'GCCTTCGTAT'
p5798
I2064
tp5799
a(S'GCCTTCTGGT'
p5800
I2124
tp5801
a(S'GCCTTGCTAT'
p5802
I1172
tp5803
a(S'GCGAAGCGCG'
p5804
I2357
tp5805
a(S'GCGACAGGCT'
p5806
I4543
tp5807
a(S'GCGACCCTGT'
p5808
I1946
tp5809
a(S'GCGACCTTTC'
p5810
I180
tp5811
a(S'GCGACGCCGT'
p5812
I5222
tp5813
a(S'GCGACTAAAG'
p5814
I1885
tp5815
a(S'GCGACTCCTT'
p5816
I1115
tp5817
a(S'GCGACTTCAC'
p5818
I3473
tp5819
a(S'GCGAGGTACT'
p5820
I900
tp5821
a(S'GCGATGAGTA'
p5822
I4425
tp5823
a(S'GCGATTCAAT'
p5824
I2261
tp5825
a(S'GCGCAACCTG'
p5826
I5312
tp5827
a(S'GCGCAGCTCG'
p5828
I155
tp5829
a(S'GCGCAGGAAA'
p5830
I771
tp5831
a(S'GCGCCAAATG'
p5832
I3616
tp5833
a(S'GCGCCATGTC'
p5834
I2976
tp5835
a(S'GCGCCGAGCG'
p5836
I1019
tp5837
a(S'GCGCCGTGGA'
p5838
I1411
tp5839
a(S'GCGCCTTCGT'
p5840
I2062
tp5841
a(S'GCGCGCTTCG'
p5842
I5347
tp5843
a(S'GCGCGGTAGG'
p5844
I2362
tp5845
a(S'GCGCTACTGC'
p5846
I3759
tp5847
a(S'GCGCTCGCCC'
p5848
I872
tp5849
a(S'GCGCTCGTCT'
p5850
I926
tp5851
a(S'GCGCTCTAAT'
p5852
I1716
tp5853
a(S'GCGCTCTCCG'
p5854
I1142
tp5855
a(S'GCGCTGAATT'
p5856
I687
tp5857
a(S'GCGCTTCGAT'
p5858
I5349
tp5859
a(S'GCGCTTGTTC'
p5860
I1861
tp5861
a(S'GCGGAAAATG'
p5862
I125
tp5863
a(S'GCGGAAGGAG'
p5864
I830
tp5865
a(S'GCGGACACTT'
p5866
I4789
tp5867
a(S'GCGGATTGGT'
p5868
I2860
tp5869
a(S'GCGGCGCAAC'
p5870
I5309
tp5871
a(S'GCGGTAAAAA'
p5872
I2316
tp5873
a(S'GCGGTAGGTT'
p5874
I2364
tp5875
a(S'GCGGTATGGC'
p5876
I3736
tp5877
a(S'GCGGTATTGC'
p5878
I2949
tp5879
a(S'GCGGTCAAAA'
p5880
I3000
tp5881
a(S'GCGGTGCACT'
p5882
I4775
tp5883
a(S'GCGTAAAGGC'
p5884
I918
tp5885
a(S'GCGTACTTAT'
p5886
I2147
tp5887
a(S'GCGTAGAGGC'
p5888
I4504
tp5889
a(S'GCGTATCCAA'
p5890
I5370
tp5891
a(S'GCGTATCGAG'
p5892
I4033
tp5893
a(S'GCGTATGCCG'
p5894
I1026
tp5895
a(S'GCGTCAAAAA'
p5896
I814
tp5897
a(S'GCGTCCGGTT'
p5898
I724
tp5899
a(S'GCGTCGAGCG'
p5900
I717
tp5901
a(S'GCGTCGTGGC'
p5902
I1164
tp5903
a(S'GCGTCTATTA'
p5904
I3560
tp5905
a(S'GCGTGAAATT'
p5906
I1977
tp5907
a(S'GCGTGACTAT'
p5908
I4639
tp5909
a(S'GCGTGCTGGT'
p5910
I3325
tp5911
a(S'GCGTGGATTA'
p5912
I335
tp5913
a(S'GCGTGTACGC'
p5914
I763
tp5915
a(S'GCGTTACCAT'
p5916
I1641
tp5917
a(S'GCGTTGACCC'
p5918
I4809
tp5919
a(S'GCGTTGAGGC'
p5920
I549
tp5921
a(S'GCGTTGAGTT'
p5922
I4170
tp5923
a(S'GCGTTGCGTC'
p5924
I3555
tp5925
a(S'GCGTTGGATG'
p5926
I222
tp5927
a(S'GCGTTTACCT'
p5928
I752
tp5929
a(S'GCGTTTATGG'
p5930
I561
tp5931
a(S'GCGTTTCTTT'
p5932
I1821
tp5933
a(S'GCGTTTGATG'
p5934
I4525
tp5935
a(S'GCGTTTTATG'
p5936
I4613
tp5937
a(S'GCTAAAGAAT'
p5938
I5066
tp5939
a(S'GCTAAAGCTG'
p5940
I3158
tp5941
a(S'GCTAAAGGTC'
p5942
I5051
tp5943
a(S'GCTAAAGGTG'
p5944
I1912
tp5945
a(S'GCTAAAGGTG'
p5946
I4958
tp5947
a(S'GCTAAATACG'
p5948
I5012
tp5949
a(S'GCTAACCCTA'
p5950
I1438
tp5951
a(S'GCTAATCAGG'
p5952
I2598
tp5953
a(S'GCTAATGATT'
p5954
I4694
tp5955
a(S'GCTAATGGCC'
p5956
I4751
tp5957
a(S'GCTAATTTGC'
p5958
I1600
tp5959
a(S'GCTACAATGT'
p5960
I4281
tp5961
a(S'GCTACACGCA'
p5962
I4908
tp5963
a(S'GCTACATCGT'
p5964
I2502
tp5965
a(S'GCTACCAGTT'
p5966
I4979
tp5967
a(S'GCTACCGATA'
p5968
I3044
tp5969
a(S'GCTACTAAAT'
p5970
I2847
tp5971
a(S'GCTACTGACC'
p5972
I521
tp5973
a(S'GCTACTGCAA'
p5974
I3761
tp5975
a(S'GCTACTTCCC'
p5976
I5104
tp5977
a(S'GCTATCAGTA'
p5978
I4716
tp5979
a(S'GCTATGATGT'
p5980
I1739
tp5981
a(S'GCTATGGCTA'
p5982
I3152
tp5983
a(S'GCTATTCAGC'
p5984
I4517
tp5985
a(S'GCTATTGACT'
p5986
I1177
tp5987
a(S'GCTATTGAGG'
p5988
I4055
tp5989
a(S'GCTATTGCTG'
p5990
I2939
tp5991
a(S'GCTCAAACGG'
p5992
I3635
tp5993
a(S'GCTCAAATTT'
p5994
I5335
tp5995
a(S'GCTCACAATG'
p5996
I5161
tp5997
a(S'GCTCATGCTG'
p5998
I4550
tp5999
a(S'GCTCATTCAG'
p6000
I445
tp6001
a(S'GCTCCCCCAA'
p6002
I4291
tp6003
a(S'GCTCCGCTTC'
p6004
I1513
tp6005
a(S'GCTCCTGTTG'
p6006
I605
tp6007
a(S'GCTCGAGAAG'
p6008
I160
tp6009
a(S'GCTCGCCCTG'
p6010
I874
tp6011
a(S'GCTCGCGTTG'
p6012
I3551
tp6013
a(S'GCTCGTCGCT'
p6014
I539
tp6015
a(S'GCTCGTCTTT'
p6016
I928
tp6017
a(S'GCTCGTTATG'
p6018
I1468
tp6019
a(S'GCTCTAATCT'
p6020
I1718
tp6021
a(S'GCTCTAATGT'
p6022
I3102
tp6023
a(S'GCTCTAATTT'
p6024
I3894
tp6025
a(S'GCTCTCCGTC'
p6026
I1144
tp6027
a(S'GCTCTCGTGC'
p6028
I531
tp6029
a(S'GCTCTTAAAC'
p6030
I4043
tp6031
a(S'GCTCTTACTT'
p6032
I169
tp6033
a(S'GCTCTTCTCA'
p6034
I3744
tp6035
a(S'GCTCTTGCTG'
p6036
I2963
tp6037
a(S'GCTCTTGGAA'
p6038
I4135
tp6039
a(S'GCTGAACGCC'
p6040
I4400
tp6041
a(S'GCTGAATCAG'
p6042
I2873
tp6043
a(S'GCTGAATTGT'
p6044
I740
tp6045
a(S'GCTGAATTTA'
p6046
I689
tp6047
a(S'GCTGACAACC'
p6048
I1690
tp6049
a(S'GCTGACGACC'
p6050
I4595
tp6051
a(S'GCTGAGGGGT'
p6052
I2340
tp6053
a(S'GCTGAGGGTC'
p6054
I2038
tp6055
a(S'GCTGAGGTTG'
p6056
I3698
tp6057
a(S'GCTGATAAAG'
p6058
I3260
tp6059
a(S'GCTGATATTG'
p6060
I2622
tp6061
a(S'GCTGATGCTT'
p6062
I3335
tp6063
a(S'GCTGATGGTA'
p6064
I3881
tp6065
a(S'GCTGATGGTT'
p6066
I4556
tp6067
a(S'GCTGATTATT'
p6068
I4013
tp6069
a(S'GCTGCATTTC'
p6070
I3296
tp6071
a(S'GCTGCCATCT'
p6072
I1487
tp6073
a(S'GCTGCCGAGG'
p6074
I4676
tp6075
a(S'GCTGCCGTCA'
p6076
I623
tp6077
a(S'GCTGCGTTGA'
p6078
I546
tp6079
a(S'GCTGCTAAAG'
p6080
I5048
tp6081
a(S'GCTGCTGAAC'
p6082
I4397
tp6083
a(S'GCTGCTGCAT'
p6084
I3293
tp6085
a(S'GCTGCTTATG'
p6086
I1591
tp6087
a(S'GCTGCTTCTG'
p6088
I3797
tp6089
a(S'GCTGCTTCTG'
p6090
I4214
tp6091
a(S'GCTGGACTTT'
p6092
I574
tp6093
a(S'GCTGGAGGCC'
p6094
I4480
tp6095
a(S'GCTGGCACTT'
p6096
I3197
tp6097
a(S'GCTGGCATTC'
p6098
I3458
tp6099
a(S'GCTGGCGACC'
p6100
I1942
tp6101
a(S'GCTGGCGACT'
p6102
I1111
tp6103
a(S'GCTGGCGGAA'
p6104
I121
tp6105
a(S'GCTGGCGGTA'
p6106
I2945
tp6107
a(S'GCTGGCTGCT'
p6108
I4393
tp6109
a(S'GCTGGGAAAA'
p6110
I5278
tp6111
a(S'GCTGGGTTAC'
p6112
I5209
tp6113
a(S'GCTGGTAAAG'
p6114
I3164
tp6115
a(S'GCTGGTAATG'
p6116
I2544
tp6117
a(S'GCTGGTATGG'
p6118
I3350
tp6119
a(S'GCTGGTATTA'
p6120
I3077
tp6121
a(S'GCTGGTCAGA'
p6122
I1063
tp6123
a(S'GCTGGTCAGT'
p6124
I3644
tp6125
a(S'GCTGGTGCTG'
p6126
I3329
tp6127
a(S'GCTGGTGGCG'
p6128
I2969
tp6129
a(S'GCTGGTTCTC'
p6130
I2444
tp6131
a(S'GCTGTCGCTA'
p6132
I5098
tp6133
a(S'GCTGTTCAAC'
p6134
I360
tp6135
a(S'GCTGTTCAGA'
p6136
I5119
tp6137
a(S'GCTGTTGCCG'
p6138
I3839
tp6139
a(S'GCTGTTGGTT'
p6140
I4994
tp6141
a(S'GCTTAAAGCT'
p6142
I4972
tp6143
a(S'GCTTAATATG'
p6144
I242
tp6145
a(S'GCTTAATCAA'
p6146
I1452
tp6147
a(S'GCTTAATCCA'
p6148
I5190
tp6149
a(S'GCTTAATGCT'
p6150
I3310
tp6151
a(S'GCTTACTAAA'
p6152
I3388
tp6153
a(S'GCTTACTCAA'
p6154
I3625
tp6155
a(S'GCTTAGGAGT'
p6156
I2378
tp6157
a(S'GCTTATCAAC'
p6158
I3527
tp6159
a(S'GCTTATCACC'
p6160
I2083
tp6161
a(S'GCTTATGCTA'
p6162
I1594
tp6163
a(S'GCTTATTATG'
p6164
I635
tp6165
a(S'GCTTCCATAA'
p6166
I4104
tp6167
a(S'GCTTCCATGA'
p6168
I10
tp6169
a(S'GCTTCCCATT'
p6170
I2102
tp6171
a(S'GCTTCCTCCT'
p6172
I1518
tp6173
a(S'GCTTCCTCTG'
p6174
I3341
tp6175
a(S'GCTTCCTTGC'
p6176
I1055
tp6177
a(S'GCTTCGATAA'
p6178
I5351
tp6179
a(S'GCTTCGGCCC'
p6180
I972
tp6181
a(S'GCTTCTGACG'
p6182
I4217
tp6183
a(S'GCTTCTGCCG'
p6184
I455
tp6185
a(S'GCTTCTGCTC'
p6186
I2957
tp6187
a(S'GCTTCTGGTG'
p6188
I3800
tp6189
a(S'GCTTCTTCGG'
p6190
I2469
tp6191
a(S'GCTTGATTTG'
p6192
I3226
tp6193
a(S'GCTTGCAAAA'
p6194
I4860
tp6195
a(S'GCTTGCGTTT'
p6196
I557
tp6197
a(S'GCTTGCTACC'
p6198
I3040
tp6199
a(S'GCTTGCTTAT'
p6200
I3523
tp6201
a(S'GCTTGGCACG'
p6202
I251
tp6203
a(S'GCTTGGCTTC'
p6204
I4099
tp6205
a(S'GCTTGGGAGC'
p6206
I3317
tp6207
a(S'GCTTGTGGCA'
p6208
I4064
tp6209
a(S'GCTTGTTCGT'
p6210
I1863
tp6211
a(S'GCTTGTTTAC'
p6212
I91
tp6213
a(S'GCTTTCCTGC'
p6214
I597
tp6215
a(S'GCTTTCTCGC'
p6216
I1536
tp6217
a(S'GCTTTGACTT'
p6218
I1921
tp6219
a(S'GCTTTGAGTC'
p6220
I2671
tp6221
a(S'GCTTTGCGTG'
p6222
I4634
tp6223
a(S'GCTTTGCTAT'
p6224
I4512
tp6225
a(S'GCTTTGGCCT'
p6226
I428
tp6227
a(S'GCTTTTCTTG'
p6228
I1321
tp6229
a(S'GCTTTTGATG'
p6230
I2631
tp6231
a(S'GCTTTTTCAC'
p6232
I4922
tp6233
a(S'GCTTTTTTAT'
p6234
I3972
tp6235
a(S'GGAAAACACC'
p6236
I3571
tp6237
a(S'GGAAAACATT'
p6238
I700
tp6239
a(S'GGAAAAGTTA'
p6240
I5282
tp6241
a(S'GGAAAATGAG'
p6242
I127
tp6243
a(S'GGAAACACTG'
p6244
I776
tp6245
a(S'GGAAAGACGG'
p6246
I3867
tp6247
a(S'GGAAAGGATA'
p6248
I3269
tp6249
a(S'GGAAATAACC'
p6250
I3909
tp6251
a(S'GGAACAACTC'
p6252
I5076
tp6253
a(S'GGAACAATTT'
p6254
I3855
tp6255
a(S'GGAACCGCCT'
p6256
I2118
tp6257
a(S'GGAACTGACC'
p6258
I1753
tp6259
a(S'GGAAGAGATT'
p6260
I4141
tp6261
a(S'GGAAGGAGTG'
p6262
I832
tp6263
a(S'GGAAGGCGCT'
p6264
I682
tp6265
a(S'GGAATAGTCA'
p6266
I2207
tp6267
a(S'GGAATTACTA'
p6268
I79
tp6269
a(S'GGACAATCAG'
p6270
I3406
tp6271
a(S'GGACACTTCC'
p6272
I4791
tp6273
a(S'GGACCTTGCT'
p6274
I5041
tp6275
a(S'GGACGAAAAA'
p6276
I4339
tp6277
a(S'GGACGCCGTT'
p6278
I1131
tp6279
a(S'GGACGCTTTT'
p6280
I4918
tp6281
a(S'GGACTGCTCC'
p6282
I1508
tp6283
a(S'GGACTGCTGG'
p6284
I116
tp6285
a(S'GGACTGGTTT'
p6286
I269
tp6287
a(S'GGACTGTGTG'
p6288
I2765
tp6289
a(S'GGACTTCTTG'
p6290
I3173
tp6291
a(S'GGACTTGGTG'
p6292
I3239
tp6293
a(S'GGACTTTGTG'
p6294
I577
tp6295
a(S'GGAGAAGTGG'
p6296
I233
tp6297
a(S'GGAGCGTGCT'
p6298
I3322
tp6299
a(S'GGAGCTAAAG'
p6300
I5063
tp6301
a(S'GGAGGCCTCC'
p6302
I4483
tp6303
a(S'GGAGGCGGTC'
p6304
I2996
tp6305
a(S'GGAGGCTTTT'
p6306
I3968
tp6307
a(S'GGAGGTAAAA'
p6308
I1669
tp6309
a(S'GGAGTCTACT'
p6310
I3541
tp6311
a(S'GGAGTGATGT'
p6312
I836
tp6313
a(S'GGAGTGCTTA'
p6314
I5185
tp6315
a(S'GGAGTTTAAT'
p6316
I2383
tp6317
a(S'GGATAAATTA'
p6318
I991
tp6319
a(S'GGATAACCGC'
p6320
I4120
tp6321
a(S'GGATACATCT'
p6322
I2579
tp6323
a(S'GGATACCCTC'
p6324
I587
tp6325
a(S'GGATACTCGT'
p6326
I3274
tp6327
a(S'GGATATTCGC'
p6328
I4417
tp6329
a(S'GGATATTTCT'
p6330
I39
tp6331
a(S'GGATATTTCT'
p6332
I3772
tp6333
a(S'GGATGAAAAT'
p6334
I5151
tp6335
a(S'GGATGAATTG'
p6336
I4264
tp6337
a(S'GGATGAGGAG'
p6338
I227
tp6339
a(S'GGATGAGTGT'
p6340
I4462
tp6341
a(S'GGATGCCTGA'
p6342
I1418
tp6343
a(S'GGATGGTGTT'
p6344
I1260
tp6345
a(S'GGATGTTTTC'
p6346
I1995
tp6347
a(S'GGATTAAGTT'
p6348
I1244
tp6349
a(S'GGATTACTAT'
p6350
I339
tp6351
a(S'GGATTGACAC'
p6352
I3923
tp6353
a(S'GGATTGCTAC'
p6354
I516
tp6355
a(S'GGATTGGTTT'
p6356
I2862
tp6357
a(S'GGATTTAACC'
p6358
I469
tp6359
a(S'GGATTTGAGA'
p6360
I3368
tp6361
a(S'GGCAACTTGC'
p6362
I1963
tp6363
a(S'GGCAAGCGTA'
p6364
I913
tp6365
a(S'GGCAAGTCTG'
p6366
I3248
tp6367
a(S'GGCAATAACG'
p6368
I2802
tp6369
a(S'GGCACAATGC'
p6370
I4273
tp6371
a(S'GGCACCTGTT'
p6372
I2477
tp6373
a(S'GGCACGATTA'
p6374
I1330
tp6375
a(S'GGCACGTTCG'
p6376
I255
tp6377
a(S'GGCACTATGT'
p6378
I1843
tp6379
a(S'GGCACTTCTG'
p6380
I3200
tp6381
a(S'GGCATCTGGC'
p6382
I1731
tp6383
a(S'GGCATGGGTG'
p6384
I3065
tp6385
a(S'GGCATTCAAG'
p6386
I3023
tp6387
a(S'GGCATTCAGT'
p6388
I3461
tp6389
a(S'GGCATTTCTA'
p6390
I4070
tp6391
a(S'GGCCAGTTTT'
p6392
I1774
tp6393
a(S'GGCCATAAGG'
p6394
I4205
tp6395
a(S'GGCCCCTTAC'
p6396
I977
tp6397
a(S'GGCCGCCCCT'
p6398
I3127
tp6399
a(S'GGCCGTCTTC'
p6400
I4757
tp6401
a(S'GGCCTCCACT'
p6402
I4486
tp6403
a(S'GGCCTCTATT'
p6404
I433
tp6405
a(S'GGCCTGTCTC'
p6406
I667
tp6407
a(S'GGCCTGTTGA'
p6408
I4947
tp6409
a(S'GGCCTTATGG'
p6410
I4875
tp6411
a(S'GGCCTTGCTA'
p6412
I1171
tp6413
a(S'GGCGACCCTG'
p6414
I1945
tp6415
a(S'GGCGACTCCT'
p6416
I1114
tp6417
a(S'GGCGACTTCA'
p6418
I3472
tp6419
a(S'GGCGCAACCT'
p6420
I5311
tp6421
a(S'GGCGCCATGT'
p6422
I2975
tp6423
a(S'GGCGCCGAGC'
p6424
I1018
tp6425
a(S'GGCGCTACTG'
p6426
I3758
tp6427
a(S'GGCGCTCGCC'
p6428
I871
tp6429
a(S'GGCGCTCGTC'
p6430
I925
tp6431
a(S'GGCGCTCTCC'
p6432
I1141
tp6433
a(S'GGCGCTGAAT'
p6434
I686
tp6435
a(S'GGCGGAAAAT'
p6436
I124
tp6437
a(S'GGCGGCGCAA'
p6438
I5308
tp6439
a(S'GGCGGTATTG'
p6440
I2948
tp6441
a(S'GGCGGTCAAA'
p6442
I2999
tp6443
a(S'GGCGTATCCA'
p6444
I5369
tp6445
a(S'GGCGTCGAGC'
p6446
I716
tp6447
a(S'GGCGTTGAGT'
p6448
I4169
tp6449
a(S'GGCGTTTTAT'
p6450
I4612
tp6451
a(S'GGCTAAAGCT'
p6452
I3157
tp6453
a(S'GGCTAAATAC'
p6454
I5011
tp6455
a(S'GGCTAACCCT'
p6456
I1437
tp6457
a(S'GGCTAATGAT'
p6458
I4693
tp6459
a(S'GGCTATGATG'
p6460
I1738
tp6461
a(S'GGCTCATGCT'
p6462
I4549
tp6463
a(S'GGCTCTAATG'
p6464
I3101
tp6465
a(S'GGCTCTAATT'
p6466
I3893
tp6467
a(S'GGCTCTTAAA'
p6468
I4042
tp6469
a(S'GGCTCTTCTC'
p6470
I3743
tp6471
a(S'GGCTGACGAC'
p6472
I4594
tp6473
a(S'GGCTGCTGAA'
p6474
I4396
tp6475
a(S'GGCTGCTTCT'
p6476
I4213
tp6477
a(S'GGCTGGCACT'
p6478
I3196
tp6479
a(S'GGCTGGGAAA'
p6480
I5277
tp6481
a(S'GGCTGGTCAG'
p6482
I3643
tp6483
a(S'GGCTGTTGGT'
p6484
I4993
tp6485
a(S'GGCTTAATAT'
p6486
I241
tp6487
a(S'GGCTTCCATA'
p6488
I4103
tp6489
a(S'GGCTTCCCAT'
p6490
I2101
tp6491
a(S'GGCTTCCTTG'
p6492
I1054
tp6493
a(S'GGCTTCGGCC'
p6494
I971
tp6495
a(S'GGCTTCTGCC'
p6496
I454
tp6497
a(S'GGCTTGCGTT'
p6498
I556
tp6499
a(S'GGCTTGTGGC'
p6500
I4063
tp6501
a(S'GGCTTTGCTA'
p6502
I4511
tp6503
a(S'GGCTTTTTTA'
p6504
I3971
tp6505
a(S'GGGAAAAGTT'
p6506
I5281
tp6507
a(S'GGGACGAAAA'
p6508
I4338
tp6509
a(S'GGGAGCGTGC'
p6510
I3321
tp6511
a(S'GGGATACCCT'
p6512
I586
tp6513
a(S'GGGATGAAAA'
p6514
I5150
tp6515
a(S'GGGCAATAAC'
p6516
I2801
tp6517
a(S'GGGCATCTGG'
p6518
I1730
tp6519
a(S'GGGCGTTGAG'
p6520
I4168
tp6521
a(S'GGGCTTCGGC'
p6522
I970
tp6523
a(S'GGGGACGAAA'
p6524
I4337
tp6525
a(S'GGGGCTTCGG'
p6526
I969
tp6527
a(S'GGGGTTGACC'
p6528
I2345
tp6529
a(S'GGGTACGCAA'
p6530
I4833
tp6531
a(S'GGGTCAGTGG'
p6532
I2043
tp6533
a(S'GGGTCGCAAG'
p6534
I4684
tp6535
a(S'GGGTCTGCAA'
p6536
I1581
tp6537
a(S'GGGTGATGCT'
p6538
I3070
tp6539
a(S'GGGTTACGAC'
p6540
I5212
tp6541
a(S'GGGTTATTTG'
p6542
I1377
tp6543
a(S'GGGTTGACCA'
p6544
I2346
tp6545
a(S'GGTAAAAAAC'
p6546
I856
tp6547
a(S'GGTAAAAATT'
p6548
I2318
tp6549
a(S'GGTAAAACCT'
p6550
I1672
tp6551
a(S'GGTAAAGCTG'
p6552
I3875
tp6553
a(S'GGTAAAGGAC'
p6554
I3167
tp6555
a(S'GGTAAGAAAT'
p6556
I378
tp6557
a(S'GGTAATGGTG'
p6558
I2547
tp6559
a(S'GGTACAGCTA'
p6560
I4745
tp6561
a(S'GGTACGCAAT'
p6562
I4834
tp6563
a(S'GGTACGCTGG'
p6564
I569
tp6565
a(S'GGTACGTTGC'
p6566
I3185
tp6567
a(S'GGTACTAAAG'
p6568
I904
tp6569
a(S'GGTAGAGATT'
p6570
I303
tp6571
a(S'GGTAGCGTTG'
p6572
I4805
tp6573
a(S'GGTAGGTTTT'
p6574
I2366
tp6575
a(S'GGTATATGCA'
p6576
I3502
tp6577
a(S'GGTATCGTTA'
p6578
I2051
tp6579
a(S'GGTATGGCTC'
p6580
I3738
tp6581
a(S'GGTATGGTTG'
p6582
I3353
tp6583
a(S'GGTATGTAGG'
p6584
I938
tp6585
a(S'GGTATTAAAT'
p6586
I3080
tp6587
a(S'GGTATTAAGG'
p6588
I4454
tp6589
a(S'GGTATTGATA'
p6590
I3827
tp6591
a(S'GGTATTGCTT'
p6592
I2951
tp6593
a(S'GGTATTGGCT'
p6594
I3887
tp6595
a(S'GGTCAAAAAG'
p6596
I3002
tp6597
a(S'GGTCAACAAT'
p6598
I949
tp6599
a(S'GGTCAGATTG'
p6600
I1066
tp6601
a(S'GGTCAGTATT'
p6602
I3647
tp6603
a(S'GGTCAGTGGT'
p6604
I2044
tp6605
a(S'GGTCGCAAGG'
p6606
I4685
tp6607
a(S'GGTCGCCATG'
p6608
I2733
tp6609
a(S'GGTCGTATGG'
p6610
I4661
tp6611
a(S'GGTCGTCCGC'
p6612
I883
tp6613
a(S'GGTCGTCGGG'
p6614
I4826
tp6615
a(S'GGTCGTCTTA'
p6616
I1075
tp6617
a(S'GGTCGTGTTC'
p6618
I1786
tp6619
a(S'GGTCTAACTT'
p6620
I2833
tp6621
a(S'GGTCTAGGAG'
p6622
I5057
tp6623
a(S'GGTCTGCAAG'
p6624
I1582
tp6625
a(S'GGTGAACAGT'
p6626
I1234
tp6627
a(S'GGTGAGCCGC'
p6628
I4964
tp6629
a(S'GGTGATATGT'
p6630
I4187
tp6631
a(S'GGTGATGCTG'
p6632
I3071
tp6633
a(S'GGTGATGTGC'
p6634
I3032
tp6635
a(S'GGTGATTCGT'
p6636
I2011
tp6637
a(S'GGTGATTTAT'
p6638
I2922
tp6639
a(S'GGTGATTTGC'
p6640
I2131
tp6641
a(S'GGTGCACTTT'
p6642
I4777
tp6643
a(S'GGTGCTATGG'
p6644
I3149
tp6645
a(S'GGTGCTATTG'
p6646
I2936
tp6647
a(S'GGTGCTGATA'
p6648
I2619
tp6649
a(S'GGTGCTGATG'
p6650
I3332
tp6651
a(S'GGTGCTTTGA'
p6652
I1918
tp6653
a(S'GGTGGCAAGT'
p6654
I3245
tp6655
a(S'GGTGGCATTC'
p6656
I3020
tp6657
a(S'GGTGGCGCCA'
p6658
I2972
tp6659
a(S'GGTGGTCAAC'
p6660
I946
tp6661
a(S'GGTGGTTATT'
p6662
I2745
tp6663
a(S'GGTGGTTTTC'
p6664
I2553
tp6665
a(S'GGTGTGGTTG'
p6666
I3806
tp6667
a(S'GGTGTTAATG'
p6668
I1264
tp6669
a(S'GGTTAAAGCC'
p6670
I730
tp6671
a(S'GGTTAAATTT'
p6672
I2217
tp6673
a(S'GGTTAATGCT'
p6674
I2537
tp6675
a(S'GGTTACAGTA'
p6676
I4883
tp6677
a(S'GGTTACGACG'
p6678
I5213
tp6679
a(S'GGTTACGCAG'
p6680
I4372
tp6681
a(S'GGTTAGTGCT'
p6682
I3691
tp6683
a(S'GGTTATAACG'
p6684
I2301
tp6685
a(S'GGTTATATTG'
p6686
I1303
tp6687
a(S'GGTTATCGCT'
p6688
I1104
tp6689
a(S'GGTTATTAAA'
p6690
I2882
tp6691
a(S'GGTTATTATA'
p6692
I2748
tp6693
a(S'GGTTATTTGA'
p6694
I1378
tp6695
a(S'GGTTCCGACT'
p6696
I2687
tp6697
a(S'GGTTCGCTTT'
p6698
I2666
tp6699
a(S'GGTTCGTTCT'
p6700
I3982
tp6701
a(S'GGTTCTCACT'
p6702
I2447
tp6703
a(S'GGTTCTTGCT'
p6704
I4669
tp6705
a(S'GGTTGACCAA'
p6706
I2347
tp6707
a(S'GGTTGACGCC'
p6708
I3358
tp6709
a(S'GGTTGACTTA'
p6710
I3703
tp6711
a(S'GGTTGATATT'
p6712
I3811
tp6713
a(S'GGTTGGACTT'
p6714
I3235
tp6715
a(S'GGTTGGTTGT'
p6716
I4937
tp6717
a(S'GGTTGGTTTA'
p6718
I4562
tp6719
a(S'GGTTGTGGCC'
p6720
I4941
tp6721
a(S'GGTTGTTTCT'
p6722
I2606
tp6723
a(S'GGTTTAGATA'
p6724
I274
tp6725
a(S'GGTTTATCGT'
p6726
I4566
tp6727
a(S'GGTTTCATGG'
p6728
I2820
tp6729
a(S'GGTTTCCGAG'
p6730
I3601
tp6731
a(S'GGTTTCCGTT'
p6732
I1477
tp6733
a(S'GGTTTCGCTG'
p6734
I2867
tp6735
a(S'GGTTTCTATG'
p6736
I5000
tp6737
a(S'GGTTTGGTCT'
p6738
I2828
tp6739
a(S'GGTTTTCTGC'
p6740
I2370
tp6741
a(S'GGTTTTCTTC'
p6742
I2556
tp6743
a(S'GGTTTTTAGA'
p6744
I4350
tp6745
a(S'GTAAAAAACG'
p6746
I857
tp6747
a(S'GTAAAAATTT'
p6748
I2319
tp6749
a(S'GTAAAACCTC'
p6750
I1673
tp6751
a(S'GTAAAGCTGA'
p6752
I3876
tp6753
a(S'GTAAAGGACT'
p6754
I3168
tp6755
a(S'GTAAAGGCGC'
p6756
I920
tp6757
a(S'GTAACAAAGT'
p6758
I504
tp6759
a(S'GTAAGAAATC'
p6760
I379
tp6761
a(S'GTAATGGTGG'
p6762
I2548
tp6763
a(S'GTAATGTCTA'
p6764
I844
tp6765
a(S'GTACAGCTAA'
p6766
I4746
tp6767
a(S'GTACCGAGGC'
p6768
I1430
tp6769
a(S'GTACCTTAAC'
p6770
I1902
tp6771
a(S'GTACGCAATC'
p6772
I4835
tp6773
a(S'GTACGCCGGG'
p6774
I2794
tp6775
a(S'GTACGCGCAG'
p6776
I767
tp6777
a(S'GTACGCTGGA'
p6778
I570
tp6779
a(S'GTACGTTGCA'
p6780
I3186
tp6781
a(S'GTACGTTTCC'
p6782
I413
tp6783
a(S'GTACTAAAGG'
p6784
I905
tp6785
a(S'GTACTTATTC'
p6786
I2149
tp6787
a(S'GTAGACATTT'
p6788
I1192
tp6789
a(S'GTAGAGATTC'
p6790
I304
tp6791
a(S'GTAGAGGCTT'
p6792
I4506
tp6793
a(S'GTAGCCGACG'
p6794
I5294
tp6795
a(S'GTAGCGTTGA'
p6796
I4806
tp6797
a(S'GTAGGCATGG'
p6798
I3062
tp6799
a(S'GTAGGTGGTC'
p6800
I943
tp6801
a(S'GTAGGTTTTC'
p6802
I2367
tp6803
a(S'GTATAATTAC'
p6804
I4432
tp6805
a(S'GTATATGCAC'
p6806
I3503
tp6807
a(S'GTATCCAACC'
p6808
I5372
tp6809
a(S'GTATCGAGGC'
p6810
I4035
tp6811
a(S'GTATCGTTAT'
p6812
I2052
tp6813
a(S'GTATCTGTTA'
p6814
I4241
tp6815
a(S'GTATGCAGGG'
p6816
I4161
tp6817
a(S'GTATGCCCAT'
p6818
I4890
tp6819
a(S'GTATGCCGCA'
p6820
I1028
tp6821
a(S'GTATGGCAAC'
p6822
I1959
tp6823
a(S'GTATGGCTCT'
p6824
I3739
tp6825
a(S'GTATGGTACA'
p6826
I4741
tp6827
a(S'GTATGGTTCT'
p6828
I4665
tp6829
a(S'GTATGGTTGA'
p6830
I3354
tp6831
a(S'GTATGTAGGT'
p6832
I939
tp6833
a(S'GTATGTTGAC'
p6834
I4195
tp6835
a(S'GTATGTTTCT'
p6836
I2070
tp6837
a(S'GTATGTTTTC'
p6838
I3943
tp6839
a(S'GTATTAAATC'
p6840
I3081
tp6841
a(S'GTATTAAGGA'
p6842
I4455
tp6843
a(S'GTATTGATAA'
p6844
I3828
tp6845
a(S'GTATTGCTTC'
p6846
I2952
tp6847
a(S'GTATTGGCTC'
p6848
I3888
tp6849
a(S'GTATTTTACC'
p6850
I3652
tp6851
a(S'GTATTTTTGT'
p6852
I4723
tp6853
a(S'GTCAAAAACT'
p6854
I209
tp6855
a(S'GTCAAAAAGC'
p6856
I3003
tp6857
a(S'GTCAAAAATT'
p6858
I816
tp6859
a(S'GTCAACAATT'
p6860
I950
tp6861
a(S'GTCAACATTC'
p6862
I653
tp6863
a(S'GTCAACGCCG'
p6864
I2589
tp6865
a(S'GTCAACGTTA'
p6866
I2510
tp6867
a(S'GTCAAGGACT'
p6868
I264
tp6869
a(S'GTCAAGGACT'
p6870
I2760
tp6871
a(S'GTCAAGTTAC'
p6872
I393
tp6873
a(S'GTCACATTTT'
p6874
I287
tp6875
a(S'GTCACGCTGA'
p6876
I4008
tp6877
a(S'GTCACGTTTA'
p6878
I1223
tp6879
a(S'GTCACTGATG'
p6880
I3788
tp6881
a(S'GTCAGATATG'
p6882
I5032
tp6883
a(S'GTCAGATTGG'
p6884
I1067
tp6885
a(S'GTCAGGATTG'
p6886
I3919
tp6887
a(S'GTCAGGTTAA'
p6888
I2213
tp6889
a(S'GTCAGTATTT'
p6890
I3648
tp6891
a(S'GTCAGTGGTA'
p6892
I2045
tp6893
a(S'GTCATGCGCT'
p6894
I1711
tp6895
a(S'GTCATTGCTT'
p6896
I629
tp6897
a(S'GTCCACGGAG'
p6898
I5179
tp6899
a(S'GTCCCTCATC'
p6900
I1213
tp6901
a(S'GTCCGATGCT'
p6902
I353
tp6903
a(S'GTCCGCAGCC'
p6904
I887
tp6905
a(S'GTCCGGTTAA'
p6906
I726
tp6907
a(S'GTCCGTTCAG'
p6908
I2187
tp6909
a(S'GTCCTTCCCC'
p6910
I2784
tp6911
a(S'GTCCTTTACT'
p6912
I1700
tp6913
a(S'GTCGAAAAAT'
p6914
I54
tp6915
a(S'GTCGAGCGTC'
p6916
I719
tp6917
a(S'GTCGCAAGGC'
p6918
I4686
tp6919
a(S'GTCGCCATGA'
p6920
I2734
tp6921
a(S'GTCGCTACTT'
p6922
I5101
tp6923
a(S'GTCGCTGCGT'
p6924
I543
tp6925
a(S'GTCGGCGACT'
p6926
I3469
tp6927
a(S'GTCGGGTACG'
p6928
I4830
tp6929
a(S'GTCGTATGGT'
p6930
I4662
tp6931
a(S'GTCGTCACTG'
p6932
I3785
tp6933
a(S'GTCGTCCGCA'
p6934
I884
tp6935
a(S'GTCGTCGGGT'
p6936
I4827
tp6937
a(S'GTCGTCTTAT'
p6938
I1076
tp6939
a(S'GTCGTGGCCT'
p6940
I1166
tp6941
a(S'GTCGTGTTCA'
p6942
I1787
tp6943
a(S'GTCGTTAGGC'
p6944
I1767
tp6945
a(S'GTCTAAAGGT'
p6946
I849
tp6947
a(S'GTCTAAATTG'
p6948
I2983
tp6949
a(S'GTCTAACTTT'
p6950
I2834
tp6951
a(S'GTCTAAGAAG'
p6952
I2019
tp6953
a(S'GTCTAATATT'
p6954
I1002
tp6955
a(S'GTCTACTGCT'
p6956
I3544
tp6957
a(S'GTCTAGGAAA'
p6958
I3904
tp6959
a(S'GTCTAGGAGC'
p6960
I5058
tp6961
a(S'GTCTATTATG'
p6962
I3562
tp6963
a(S'GTCTCATCAT'
p6964
I672
tp6965
a(S'GTCTCCAGCC'
p6966
I2902
tp6967
a(S'GTCTGCAAGC'
p6968
I1583
tp6969
a(S'GTCTGCCGCT'
p6970
I3253
tp6971
a(S'GTCTTATTAC'
p6972
I1079
tp6973
a(S'GTCTTCATTT'
p6974
I4761
tp6975
a(S'GTCTTCTTCG'
p6976
I2678
tp6977
a(S'GTCTTTCTCC'
p6978
I1151
tp6979
a(S'GTCTTTGGTA'
p6980
I932
tp6981
a(S'GTCTTTTCGT'
p6982
I4153
tp6983
a(S'GTGAAATTTC'
p6984
I1979
tp6985
a(S'GTGAACAGTG'
p6986
I1235
tp6987
a(S'GTGACCGTTT'
p6988
I2230
tp6989
a(S'GTGACGACAA'
p6990
I5321
tp6991
a(S'GTGACTATTG'
p6992
I2772
tp6993
a(S'GTGACTATTT'
p6994
I4641
tp6995
a(S'GTGAGCCGCT'
p6996
I4965
tp6997
a(S'GTGAGGTGAT'
p6998
I2918
tp6999
a(S'GTGAGGTTAT'
p7000
I2297
tp7001
a(S'GTGATAAAAG'
p7002
I2280
tp7003
a(S'GTGATATGTA'
p7004
I4188
tp7005
a(S'GTGATATTGG'
p7006
I4653
tp7007
a(S'GTGATGAGTT'
p7008
I4230
tp7009
a(S'GTGATGCTGG'
p7010
I3072
tp7011
a(S'GTGATGTAAT'
p7012
I839
tp7013
a(S'GTGATGTGCT'
p7014
I3033
tp7015
a(S'GTGATTACTT'
p7016
I1625
tp7017
a(S'GTGATTATCT'
p7018
I3282
tp7019
a(S'GTGATTCGTC'
p7020
I2012
tp7021
a(S'GTGATTTATG'
p7022
I2923
tp7023
a(S'GTGATTTGCA'
p7024
I2132
tp7025
a(S'GTGCACTTTA'
p7026
I4778
tp7027
a(S'GTGCCGCGTT'
p7028
I1816
tp7029
a(S'GTGCCTGAGT'
p7030
I4733
tp7031
a(S'GTGCGGAAGG'
p7032
I828
tp7033
a(S'GTGCGTCAAA'
p7034
I812
tp7035
a(S'GTGCTATGGC'
p7036
I3150
tp7037
a(S'GTGCTATTGC'
p7038
I2937
tp7039
a(S'GTGCTCCCCC'
p7040
I4289
tp7041
a(S'GTGCTCGTCG'
p7042
I537
tp7043
a(S'GTGCTGAGGT'
p7044
I3696
tp7045
a(S'GTGCTGATAT'
p7046
I2620
tp7047
a(S'GTGCTGATGC'
p7048
I3333
tp7049
a(S'GTGCTGGTGC'
p7050
I3327
tp7051
a(S'GTGCTTAATC'
p7052
I5188
tp7053
a(S'GTGCTTGCTA'
p7054
I3038
tp7055
a(S'GTGCTTTGAC'
p7056
I1919
tp7057
a(S'GTGGAATAGT'
p7058
I2205
tp7059
a(S'GTGGACTGCT'
p7060
I114
tp7061
a(S'GTGGATGCCT'
p7062
I1416
tp7063
a(S'GTGGATTAAG'
p7064
I1242
tp7065
a(S'GTGGATTACT'
p7066
I337
tp7067
a(S'GTGGCAAGTC'
p7068
I3246
tp7069
a(S'GTGGCATTCA'
p7070
I3021
tp7071
a(S'GTGGCATTTC'
p7072
I4068
tp7073
a(S'GTGGCCTGTT'
p7074
I4945
tp7075
a(S'GTGGCCTTAT'
p7076
I4873
tp7077
a(S'GTGGCCTTGC'
p7078
I1169
tp7079
a(S'GTGGCGCCAT'
p7080
I2973
tp7081
a(S'GTGGCTAAAT'
p7082
I5009
tp7083
a(S'GTGGCTTAAT'
p7084
I239
tp7085
a(S'GTGGGATACC'
p7086
I584
tp7087
a(S'GTGGTATCGT'
p7088
I2049
tp7089
a(S'GTGGTCAACA'
p7090
I947
tp7091
a(S'GTGGTTATTA'
p7092
I2746
tp7093
a(S'GTGGTTGATA'
p7094
I3809
tp7095
a(S'GTGGTTTTCT'
p7096
I2554
tp7097
a(S'GTGTACGCGC'
p7098
I765
tp7099
a(S'GTGTGACTAT'
p7100
I2770
tp7101
a(S'GTGTGAGGTT'
p7102
I2295
tp7103
a(S'GTGTGCCTGA'
p7104
I4731
tp7105
a(S'GTGTGGTTGA'
p7106
I3807
tp7107
a(S'GTGTTAATGC'
p7108
I1265
tp7109
a(S'GTGTTCAACA'
p7110
I1790
tp7111
a(S'GTGTTCAAGA'
p7112
I4468
tp7113
a(S'GTGTTTCCAG'
p7114
I2178
tp7115
a(S'GTTAAAGCCG'
p7116
I731
tp7117
a(S'GTTAAATAGC'
p7118
I4852
tp7119
a(S'GTTAAATTTA'
p7120
I2218
tp7121
a(S'GTTAACAAAA'
p7122
I5021
tp7123
a(S'GTTAACACTA'
p7124
I1291
tp7125
a(S'GTTAACACTT'
p7126
I27
tp7127
a(S'GTTAATGCCA'
p7128
I1267
tp7129
a(S'GTTAATGCTG'
p7130
I2538
tp7131
a(S'GTTAATGGAT'
p7132
I4258
tp7133
a(S'GTTACAGTAT'
p7134
I4884
tp7135
a(S'GTTACCATGA'
p7136
I1643
tp7137
a(S'GTTACGACGC'
p7138
I5214
tp7139
a(S'GTTACGCAGT'
p7140
I4373
tp7141
a(S'GTTACTCCAG'
p7142
I2460
tp7143
a(S'GTTACTGAAC'
p7144
I398
tp7145
a(S'GTTACTGAGA'
p7146
I4247
tp7147
a(S'GTTACTGTAG'
p7148
I5288
tp7149
a(S'GTTAGGCCAG'
p7150
I1770
tp7151
a(S'GTTAGTGCTG'
p7152
I3692
tp7153
a(S'GTTATAACGC'
p7154
I2302
tp7155
a(S'GTTATATGGC'
p7156
I4986
tp7157
a(S'GTTATATTGA'
p7158
I1304
tp7159
a(S'GTTATATTTT'
p7160
I2516
tp7161
a(S'GTTATCGCTG'
p7162
I1105
tp7163
a(S'GTTATGCGCC'
p7164
I2057
tp7165
a(S'GTTATGGTTT'
p7166
I1472
tp7167
a(S'GTTATTAAAG'
p7168
I2883
tp7169
a(S'GTTATTATAC'
p7170
I2749
tp7171
a(S'GTTATTTCTT'
p7172
I1654
tp7173
a(S'GTTATTTGAA'
p7174
I1379
tp7175
a(S'GTTCAACAGA'
p7176
I1792
tp7177
a(S'GTTCAACCAC'
p7178
I363
tp7179
a(S'GTTCAACCAG'
p7180
I5230
tp7181
a(S'GTTCAAGATT'
p7182
I4470
tp7183
a(S'GTTCAGAATC'
p7184
I5122
tp7185
a(S'GTTCAGTTGT'
p7186
I2191
tp7187
a(S'GTTCATCAGC'
p7188
I3713
tp7189
a(S'GTTCATCCCG'
p7190
I644
tp7191
a(S'GTTCATGAAG'
p7192
I1251
tp7193
a(S'GTTCATGGTA'
p7194
I297
tp7195
a(S'GTTCCGACTA'
p7196
I2688
tp7197
a(S'GTTCCTAACC'
p7198
I3110
tp7199
a(S'GTTCCTGAGC'
p7200
I1831
tp7201
a(S'GTTCGATAAT'
p7202
I4177
tp7203
a(S'GTTCGCGTTT'
p7204
I748
tp7205
a(S'GTTCGCTACA'
p7206
I4904
tp7207
a(S'GTTCGCTTTG'
p7208
I2667
tp7209
a(S'GTTCGTCAAG'
p7210
I260
tp7211
a(S'GTTCGTGATG'
p7212
I4226
tp7213
a(S'GTTCGTTCTT'
p7214
I3983
tp7215
a(S'GTTCGTTTTC'
p7216
I1867
tp7217
a(S'GTTCTCACTT'
p7218
I2448
tp7219
a(S'GTTCTGGCGC'
p7220
I866
tp7221
a(S'GTTCTGGTGA'
p7222
I2006
tp7223
a(S'GTTCTGGTTG'
p7224
I4932
tp7225
a(S'GTTCTTACTG'
p7226
I788
tp7227
a(S'GTTCTTATTA'
p7228
I3987
tp7229
a(S'GTTCTTGCTG'
p7230
I4670
tp7231
a(S'GTTGACATTT'
p7232
I318
tp7233
a(S'GTTGACCAAG'
p7234
I2348
tp7235
a(S'GTTGACCCTA'
p7236
I4811
tp7237
a(S'GTTGACGCCG'
p7238
I3359
tp7239
a(S'GTTGACGGCC'
p7240
I4199
tp7241
a(S'GTTGACTTAG'
p7242
I3704
tp7243
a(S'GTTGAGGCTT'
p7244
I551
tp7245
a(S'GTTGAGTTCG'
p7246
I4172
tp7247
a(S'GTTGAGTTTA'
p7248
I611
tp7249
a(S'GTTGATATTT'
p7250
I3812
tp7251
a(S'GTTGATGCTA'
p7252
I4952
tp7253
a(S'GTTGATGGAA'
p7254
I1747
tp7255
a(S'GTTGCAGGCT'
p7256
I3190
tp7257
a(S'GTTGCAGTGG'
p7258
I2199
tp7259
a(S'GTTGCCGATA'
p7260
I3842
tp7261
a(S'GTTGCGAGGT'
p7262
I897
tp7263
a(S'GTTGCGTCTA'
p7264
I3557
tp7265
a(S'GTTGCTGCCA'
p7266
I1484
tp7267
a(S'GTTGCTTGAT'
p7268
I3223
tp7269
a(S'GTTGGACTTG'
p7270
I3236
tp7271
a(S'GTTGGATGAG'
p7272
I224
tp7273
a(S'GTTGGCGCTC'
p7274
I1138
tp7275
a(S'GTTGGCTGAC'
p7276
I4591
tp7277
a(S'GTTGGTGCTG'
p7278
I2616
tp7279
a(S'GTTGGTTGTG'
p7280
I4938
tp7281
a(S'GTTGGTTTAT'
p7282
I4563
tp7283
a(S'GTTGGTTTCA'
p7284
I2817
tp7285
a(S'GTTGGTTTCT'
p7286
I4997
tp7287
a(S'GTTGTGGCCT'
p7288
I4942
tp7289
a(S'GTTGTTGCAG'
p7290
I2196
tp7291
a(S'GTTGTTTCTG'
p7292
I2607
tp7293
a(S'GTTTAAGATT'
p7294
I2028
tp7295
a(S'GTTTAATCAT'
p7296
I2386
tp7297
a(S'GTTTACCTTG'
p7298
I754
tp7299
a(S'GTTTACGAAT'
p7300
I95
tp7301
a(S'GTTTACTCTT'
p7302
I1851
tp7303
a(S'GTTTAGATAT'
p7304
I275
tp7305
a(S'GTTTATCCTT'
p7306
I2718
tp7307
a(S'GTTTATCGCA'
p7308
I2236
tp7309
a(S'GTTTATCGTT'
p7310
I4567
tp7311
a(S'GTTTATGGTA'
p7312
I563
tp7313
a(S'GTTTATGGTG'
p7314
I1228
tp7315
a(S'GTTTATGTTG'
p7316
I2811
tp7317
a(S'GTTTATTGCT'
p7318
I616
tp7319
a(S'GTTTCAGACT'
p7320
I2396
tp7321
a(S'GTTTCAGGGT'
p7322
I1371
tp7323
a(S'GTTTCATGGT'
p7324
I2821
tp7325
a(S'GTTTCCAGAC'
p7326
I417
tp7327
a(S'GTTTCCAGTC'
p7328
I2180
tp7329
a(S'GTTTCCGAGA'
p7330
I3602
tp7331
a(S'GTTTCCGTTG'
p7332
I1478
tp7333
a(S'GTTTCGCTGA'
p7334
I2868
tp7335
a(S'GTTTCTATGT'
p7336
I5001
tp7337
a(S'GTTTCTCCTG'
p7338
I2074
tp7339
a(S'GTTTCTGATA'
p7340
I3212
tp7341
a(S'GTTTCTGGTG'
p7342
I3143
tp7343
a(S'GTTTCTGTTG'
p7344
I2610
tp7345
a(S'GTTTCTTTGT'
p7346
I1823
tp7347
a(S'GTTTGACGGT'
p7348
I2530
tp7349
a(S'GTTTGATGAA'
p7350
I4527
tp7351
a(S'GTTTGGAGGC'
p7352
I2992
tp7353
a(S'GTTTGGATTG'
p7354
I512
tp7355
a(S'GTTTGGTCTA'
p7356
I2829
tp7357
a(S'GTTTGGTGCT'
p7358
I2932
tp7359
a(S'GTTTGGTTCG'
p7360
I2662
tp7361
a(S'GTTTGTATCT'
p7362
I4237
tp7363
a(S'GTTTTACAGA'
p7364
I2484
tp7365
a(S'GTTTTATCGC'
p7366
I2
tp7367
a(S'GTTTTATGAT'
p7368
I4615
tp7369
a(S'GTTTTCATGC'
p7370
I3947
tp7371
a(S'GTTTTCCGCC'
p7372
I1871
tp7373
a(S'GTTTTCCGTT'
p7374
I1999
tp7375
a(S'GTTTTCTGCT'
p7376
I2371
tp7377
a(S'GTTTTCTGGT'
p7378
I1779
tp7379
a(S'GTTTTCTTCA'
p7380
I2557
tp7381
a(S'GTTTTGCCGC'
p7382
I4381
tp7383
a(S'GTTTTGGATT'
p7384
I464
tp7385
a(S'GTTTTGGCGG'
p7386
I5303
tp7387
a(S'GTTTTGTATG'
p7388
I1954
tp7389
a(S'GTTTTGTTTC'
p7390
I3138
tp7391
a(S'GTTTTTAGAG'
p7392
I4351
tp7393
a(S'GTTTTTGACA'
p7394
I4574
tp7395
a(S'TAAAAAACGT'
p7396
I858
tp7397
a(S'TAAAAACCAA'
p7398
I5088
tp7399
a(S'TAAAAATGAT'
p7400
I5358
tp7401
a(S'TAAAAATTTT'
p7402
I2320
tp7403
a(S'TAAAACCTCT'
p7404
I1674
tp7405
a(S'TAAAAGAGCG'
p7406
I328
tp7407
a(S'TAAAAGATTG'
p7408
I2284
tp7409
a(S'TAAAATCCCT'
p7410
I1353
tp7411
a(S'TAAAATGCAA'
p7412
I3394
tp7413
a(S'TAAACATTCT'
p7414
I1806
tp7415
a(S'TAAACCTGCT'
p7416
I4048
tp7417
a(S'TAAAGAATGG'
p7418
I5068
tp7419
a(S'TAAAGAGATT'
p7420
I1890
tp7421
a(S'TAAAGAGATT'
p7422
I2888
tp7423
a(S'TAAAGCAGGA'
p7424
I72
tp7425
a(S'TAAAGCCGCT'
p7426
I733
tp7427
a(S'TAAAGCGCCG'
p7428
I1407
tp7429
a(S'TAAAGCTACA'
p7430
I2498
tp7431
a(S'TAAAGCTACC'
p7432
I4975
tp7433
a(S'TAAAGCTGAT'
p7434
I3877
tp7435
a(S'TAAAGCTGGT'
p7436
I3160
tp7437
a(S'TAAAGCTGTT'
p7438
I3835
tp7439
a(S'TAAAGGAAAG'
p7440
I3265
tp7441
a(S'TAAAGGACTT'
p7442
I3169
tp7443
a(S'TAAAGGCAAG'
p7444
I909
tp7445
a(S'TAAAGGCGCT'
p7446
I921
tp7447
a(S'TAAAGGTAAA'
p7448
I852
tp7449
a(S'TAAAGGTCTA'
p7450
I5053
tp7451
a(S'TAAAGGTGAG'
p7452
I4960
tp7453
a(S'TAAAGGTGCT'
p7454
I1914
tp7455
a(S'TAAATACGTT'
p7456
I5014
tp7457
a(S'TAAATAGCTT'
p7458
I4854
tp7459
a(S'TAAATCGAAG'
p7460
I105
tp7461
a(S'TAAATCTGCC'
p7462
I3085
tp7463
a(S'TAAATGCCGC'
p7464
I2852
tp7465
a(S'TAAATTATGT'
p7466
I994
tp7467
a(S'TAAATTGTTT'
p7468
I2986
tp7469
a(S'TAAATTTAAT'
p7470
I2220
tp7471
a(S'TAAATTTTTT'
p7472
I2648
tp7473
a(S'TAACAAAAAG'
p7474
I5023
tp7475
a(S'TAACAAAGTT'
p7476
I505
tp7477
a(S'TAACAACTAT'
p7478
I1395
tp7479
a(S'TAACAATACT'
p7480
I3052
tp7481
a(S'TAACACTACT'
p7482
I1293
tp7483
a(S'TAACACTATA'
p7484
I4312
tp7485
a(S'TAACACTTTC'
p7486
I29
tp7487
a(S'TAACCCTAAT'
p7488
I1440
tp7489
a(S'TAACCCTGAT'
p7490
I1338
tp7491
a(S'TAACCCTGAT'
p7492
I3115
tp7493
a(S'TAACCGAAGA'
p7494
I474
tp7495
a(S'TAACCGCATC'
p7496
I4123
tp7497
a(S'TAACCGTCAG'
p7498
I3914
tp7499
a(S'TAACGATTCT'
p7500
I199
tp7501
a(S'TAACGCCGAA'
p7502
I2306
tp7503
a(S'TAACGCTAAA'
p7504
I1908
tp7505
a(S'TAACGTTTAT'
p7506
I2807
tp7507
a(S'TAACTTTACC'
p7508
I2837
tp7509
a(S'TAAGAAATCA'
p7510
I380
tp7511
a(S'TAAGAAGTTT'
p7512
I2022
tp7513
a(S'TAAGATTGCT'
p7514
I2031
tp7515
a(S'TAAGCAGATG'
p7516
I4111
tp7517
a(S'TAAGCATTTG'
p7518
I1362
tp7519
a(S'TAAGCTCATT'
p7520
I442
tp7521
a(S'TAAGCTGGTT'
p7522
I2441
tp7523
a(S'TAAGGATATT'
p7524
I4414
tp7525
a(S'TAAGGATGAG'
p7526
I4459
tp7527
a(S'TAAGGCTGCT'
p7528
I4210
tp7529
a(S'TAAGTGAGGT'
p7530
I2915
tp7531
a(S'TAAGTTCATG'
p7532
I1248
tp7533
a(S'TAAGTTGCTT'
p7534
I3220
tp7535
a(S'TAATAACACT'
p7536
I4309
tp7537
a(S'TAATAGGTAA'
p7538
I373
tp7539
a(S'TAATATGCTT'
p7540
I245
tp7541
a(S'TAATATTCAA'
p7542
I1005
tp7543
a(S'TAATCAAGAT'
p7544
I1455
tp7545
a(S'TAATCAGGTT'
p7546
I2600
tp7547
a(S'TAATCATGTT'
p7548
I2389
tp7549
a(S'TAATCCAACT'
p7550
I5193
tp7551
a(S'TAATCCCAAT'
p7552
I4624
tp7553
a(S'TAATCTCTGG'
p7554
I1722
tp7555
a(S'TAATGAGCTT'
p7556
I1446
tp7557
a(S'TAATGATTCA'
p7558
I4696
tp7559
a(S'TAATGCCACT'
p7560
I1269
tp7561
a(S'TAATGCTGGT'
p7562
I2540
tp7563
a(S'TAATGCTTGG'
p7564
I3313
tp7565
a(S'TAATGGATGA'
p7566
I4260
tp7567
a(S'TAATGGCCGT'
p7568
I4753
tp7569
a(S'TAATGGCGTC'
p7570
I712
tp7571
a(S'TAATGGTGAT'
p7572
I4183
tp7573
a(S'TAATGGTGGT'
p7574
I2549
tp7575
a(S'TAATGTCGTC'
p7576
I3781
tp7577
a(S'TAATGTCTAA'
p7578
I845
tp7579
a(S'TAATGTGACC'
p7580
I2226
tp7581
a(S'TAATGTTCCT'
p7582
I3106
tp7583
a(S'TAATTACCCC'
p7584
I4435
tp7585
a(S'TAATTCAAAC'
p7586
I2420
tp7587
a(S'TAATTGCAGG'
p7588
I961
tp7589
a(S'TAATTTGCAT'
p7590
I1602
tp7591
a(S'TAATTTGTCT'
p7592
I3898
tp7593
a(S'TAATTTTGGT'
p7594
I4819
tp7595
a(S'TAATTTTTGC'
p7596
I2329
tp7597
a(S'TACAATGTGC'
p7598
I4283
tp7599
a(S'TACACGCAGG'
p7600
I4910
tp7601
a(S'TACAGACACC'
p7602
I2488
tp7603
a(S'TACAGCTAAT'
p7604
I4747
tp7605
a(S'TACAGGTAGC'
p7606
I4801
tp7607
a(S'TACAGTATGC'
p7608
I4886
tp7609
a(S'TACATCGTCA'
p7610
I2504
tp7611
a(S'TACATCTGTC'
p7612
I2582
tp7613
a(S'TACCAAGCTG'
p7614
I5203
tp7615
a(S'TACCAATAAA'
p7616
I1347
tp7617
a(S'TACCAATGAC'
p7618
I3658
tp7619
a(S'TACCACATCT'
p7620
I1560
tp7621
a(S'TACCAGTTAT'
p7622
I4981
tp7623
a(S'TACCATGATG'
p7624
I1645
tp7625
a(S'TACCATTTCA'
p7626
I1086
tp7627
a(S'TACCCCAAAA'
p7628
I4439
tp7629
a(S'TACCCTCCCG'
p7630
I2696
tp7631
a(S'TACCCTCGCT'
p7632
I590
tp7633
a(S'TACCCTTCTG'
p7634
I3995
tp7635
a(S'TACCGAGGCT'
p7636
I1431
tp7637
a(S'TACCGATAAC'
p7638
I3046
tp7639
a(S'TACCGATATT'
p7640
I1932
tp7641
a(S'TACCGCTACT'
p7642
I2843
tp7643
a(S'TACCGTCAAG'
p7644
I2756
tp7645
a(S'TACCTTAACG'
p7646
I1903
tp7647
a(S'TACCTTGCGT'
p7648
I757
tp7649
a(S'TACGAAAGAC'
p7650
I3490
tp7651
a(S'TACGAATTAA'
p7652
I98
tp7653
a(S'TACGACGCGA'
p7654
I5216
tp7655
a(S'TACGCAATCG'
p7656
I4836
tp7657
a(S'TACGCAGTTT'
p7658
I4375
tp7659
a(S'TACGCCGGGC'
p7660
I2795
tp7661
a(S'TACGCGCAGG'
p7662
I768
tp7663
a(S'TACGCTGGAC'
p7664
I571
tp7665
a(S'TACGGAAAAC'
p7666
I697
tp7667
a(S'TACGTGCGGA'
p7668
I825
tp7669
a(S'TACGTGGCCT'
p7670
I4870
tp7671
a(S'TACGTTAACA'
p7672
I5018
tp7673
a(S'TACGTTGCAG'
p7674
I3187
tp7675
a(S'TACGTTTCCA'
p7676
I414
tp7677
a(S'TACTAAAATG'
p7678
I3391
tp7679
a(S'TACTAAAGGC'
p7680
I906
tp7681
a(S'TACTAAATGC'
p7682
I2849
tp7683
a(S'TACTACTGCT'
p7684
I84
tp7685
a(S'TACTATCTGA'
p7686
I343
tp7687
a(S'TACTCAAGCT'
p7688
I3628
tp7689
a(S'TACTCCAGCT'
p7690
I2462
tp7691
a(S'TACTCCGGTT'
p7692
I1098
tp7693
a(S'TACTCGTGAT'
p7694
I3277
tp7695
a(S'TACTCTTGCG'
p7696
I1854
tp7697
a(S'TACTCTTTCT'
p7698
I4078
tp7699
a(S'TACTGAACAA'
p7700
I400
tp7701
a(S'TACTGACCAA'
p7702
I1611
tp7703
a(S'TACTGACCGC'
p7704
I523
tp7705
a(S'TACTGACGCA'
p7706
I793
tp7707
a(S'TACTGAGAAG'
p7708
I4249
tp7709
a(S'TACTGCAAAG'
p7710
I3763
tp7711
a(S'TACTGCGACT'
p7712
I1881
tp7713
a(S'TACTGCTCGC'
p7714
I3547
tp7715
a(S'TACTGCTTGT'
p7716
I87
tp7717
a(S'TACTGGTTAT'
p7718
I1299
tp7719
a(S'TACTGTAGAC'
p7720
I1188
tp7721
a(S'TACTGTAGCC'
p7722
I5290
tp7723
a(S'TACTGTAGGC'
p7724
I3058
tp7725
a(S'TACTTATTCG'
p7726
I2150
tp7727
a(S'TACTTCATGC'
p7728
I1630
tp7729
a(S'TACTTCCCAA'
p7730
I5106
tp7731
a(S'TACTTGAGGA'
p7732
I984
tp7733
a(S'TACTTGGAAC'
p7734
I3850
tp7735
a(S'TACTTGTCAT'
p7736
I1706
tp7737
a(S'TACTTTGCGA'
p7738
I174
tp7739
a(S'TACTTTTTAT'
p7740
I1203
tp7741
a(S'TAGACATTTT'
p7742
I1193
tp7743
a(S'TAGACCACCG'
p7744
I4320
tp7745
a(S'TAGAGAACGA'
p7746
I4356
tp7747
a(S'TAGAGATTCT'
p7748
I305
tp7749
a(S'TAGAGGCGTT'
p7750
I4608
tp7751
a(S'TAGAGGCTTT'
p7752
I4507
tp7753
a(S'TAGATATGAG'
p7754
I278
tp7755
a(S'TAGCCGACGT'
p7756
I5295
tp7757
a(S'TAGCGTTGAC'
p7758
I4807
tp7759
a(S'TAGCTTGCAA'
p7760
I4858
tp7761
a(S'TAGGAAATAA'
p7762
I3907
tp7763
a(S'TAGGAGCTAA'
p7764
I5061
tp7765
a(S'TAGGAGTTTA'
p7766
I2381
tp7767
a(S'TAGGCATGGG'
p7768
I3063
tp7769
a(S'TAGGCCAGTT'
p7770
I1772
tp7771
a(S'TAGGTAAGAA'
p7772
I376
tp7773
a(S'TAGGTGGTCA'
p7774
I944
tp7775
a(S'TAGGTTTTCT'
p7776
I2368
tp7777
a(S'TAGTCAGGTT'
p7778
I2211
tp7779
a(S'TAGTGCTGAG'
p7780
I3694
tp7781
a(S'TAGTTCATCA'
p7782
I3711
tp7783
a(S'TAGTTTGACG'
p7784
I2528
tp7785
a(S'TAGTTTTGTT'
p7786
I3136
tp7787
a(S'TATAAACATT'
p7788
I1804
tp7789
a(S'TATAACAACT'
p7790
I1393
tp7791
a(S'TATAACGCCG'
p7792
I2304
tp7793
a(S'TATAATTACC'
p7794
I4433
tp7795
a(S'TATACCGATA'
p7796
I1930
tp7797
a(S'TATACCGTCA'
p7798
I2754
tp7799
a(S'TATAGACCAC'
p7800
I4318
tp7801
a(S'TATATGCACA'
p7802
I3504
tp7803
a(S'TATATGGCTG'
p7804
I4988
tp7805
a(S'TATATTGACC'
p7806
I1306
tp7807
a(S'TATATTTTGA'
p7808
I2518
tp7809
a(S'TATCAACAGA'
p7810
I3530
tp7811
a(S'TATCACCTTC'
p7812
I2086
tp7813
a(S'TATCAGTATT'
p7814
I4718
tp7815
a(S'TATCCAACCT'
p7816
I5373
tp7817
a(S'TATCCTTGCG'
p7818
I148
tp7819
a(S'TATCCTTTGA'
p7820
I2721
tp7821
a(S'TATCGAGGCT'
p7822
I4036
tp7823
a(S'TATCGCAATC'
p7824
I2239
tp7825
a(S'TATCGCTGGC'
p7826
I1107
tp7827
a(S'TATCGCTTCC'
p7828
I6
tp7829
a(S'TATCGTTATG'
p7830
I2053
tp7831
a(S'TATCGTTTTT'
p7832
I4570
tp7833
a(S'TATCTATAAC'
p7834
I1389
tp7835
a(S'TATCTGAGTC'
p7836
I346
tp7837
a(S'TATCTGTTAC'
p7838
I4242
tp7839
a(S'TATCTTGATA'
p7840
I64
tp7841
a(S'TATCTTGCTG'
p7842
I3287
tp7843
a(S'TATGAAATCG'
p7844
I4495
tp7845
a(S'TATGAAGGAT'
p7846
I1989
tp7847
a(S'TATGACCAGT'
p7848
I2170
tp7849
a(S'TATGACGCTG'
p7850
I1684
tp7851
a(S'TATGAGTCAC'
p7852
I282
tp7853
a(S'TATGATAATC'
p7854
I4619
tp7855
a(S'TATGATGTTG'
p7856
I1741
tp7857
a(S'TATGATGTTT'
p7858
I2712
tp7859
a(S'TATGCACAAA'
p7860
I3506
tp7861
a(S'TATGCAGGGC'
p7862
I4162
tp7863
a(S'TATGCCCATC'
p7864
I4891
tp7865
a(S'TATGCCGCAT'
p7866
I1029
tp7867
a(S'TATGCGCCAA'
p7868
I3613
tp7869
a(S'TATGCGCCTT'
p7870
I2059
tp7871
a(S'TATGCGCGCT'
p7872
I5344
tp7873
a(S'TATGCGGACA'
p7874
I4786
tp7875
a(S'TATGCTAATT'
p7876
I1597
tp7877
a(S'TATGCTTGGC'
p7878
I248
tp7879
a(S'TATGGAAAAC'
p7880
I3568
tp7881
a(S'TATGGACCTT'
p7882
I5038
tp7883
a(S'TATGGCAACT'
p7884
I1960
tp7885
a(S'TATGGCTAAA'
p7886
I3154
tp7887
a(S'TATGGCTCTT'
p7888
I3740
tp7889
a(S'TATGGCTGTT'
p7890
I4990
tp7891
a(S'TATGGGTCTG'
p7892
I1578
tp7893
a(S'TATGGTACAG'
p7894
I4742
tp7895
a(S'TATGGTACGC'
p7896
I566
tp7897
a(S'TATGGTGAAC'
p7898
I1231
tp7899
a(S'TATGGTTACA'
p7900
I4880
tp7901
a(S'TATGGTTCGT'
p7902
I3979
tp7903
a(S'TATGGTTCTT'
p7904
I4666
tp7905
a(S'TATGGTTGAC'
p7906
I3355
tp7907
a(S'TATGGTTTCC'
p7908
I1474
tp7909
a(S'TATGTAGGTG'
p7910
I940
tp7911
a(S'TATGTATGTT'
p7912
I4192
tp7913
a(S'TATGTCCCTC'
p7914
I1210
tp7915
a(S'TATGTCTAAT'
p7916
I999
tp7917
a(S'TATGTGGCTA'
p7918
I5006
tp7919
a(S'TATGTTCATC'
p7920
I641
tp7921
a(S'TATGTTGACG'
p7922
I4196
tp7923
a(S'TATGTTGGTT'
p7924
I2814
tp7925
a(S'TATGTTTACT'
p7926
I1848
tp7927
a(S'TATGTTTCTC'
p7928
I2071
tp7929
a(S'TATGTTTGGT'
p7930
I2929
tp7931
a(S'TATGTTTTCA'
p7932
I3944
tp7933
a(S'TATTAAAGAG'
p7934
I2885
tp7935
a(S'TATTAAATCT'
p7936
I3082
tp7937
a(S'TATTAAGCTC'
p7938
I439
tp7939
a(S'TATTAAGGAT'
p7940
I4456
tp7941
a(S'TATTAATAAC'
p7942
I4306
tp7943
a(S'TATTAATGGC'
p7944
I709
tp7945
a(S'TATTACCATT'
p7946
I1083
tp7947
a(S'TATTACCCTT'
p7948
I3992
tp7949
a(S'TATTATACCG'
p7950
I2751
tp7951
a(S'TATTATGGAA'
p7952
I3565
tp7953
a(S'TATTATGTTC'
p7954
I638
tp7955
a(S'TATTCAAACT'
p7956
I1008
tp7957
a(S'TATTCAGCGT'
p7958
I4519
tp7959
a(S'TATTCGCCAC'
p7960
I2154
tp7961
a(S'TATTCGCGAT'
p7962
I4420
tp7963
a(S'TATTGAAGCA'
p7964
I5241
tp7965
a(S'TATTGACATT'
p7966
I1569
tp7967
a(S'TATTGACCAT'
p7968
I1308
tp7969
a(S'TATTGACGTC'
p7970
I2777
tp7971
a(S'TATTGACTCT'
p7972
I1179
tp7973
a(S'TATTGAGGCT'
p7974
I4057
tp7975
a(S'TATTGATAAA'
p7976
I3829
tp7977
a(S'TATTGCTGCC'
p7978
I619
tp7979
a(S'TATTGCTGGC'
p7980
I1938
tp7981
a(S'TATTGCTGGC'
p7982
I2941
tp7983
a(S'TATTGCTTCT'
p7984
I2953
tp7985
a(S'TATTGCTTTT'
p7986
I2627
tp7987
a(S'TATTGGCGCT'
p7988
I3754
tp7989
a(S'TATTGGCTCT'
p7990
I3889
tp7991
a(S'TATTGGTCGT'
p7992
I4657
tp7993
a(S'TATTTCTAAT'
p7994
I3775
tp7995
a(S'TATTTCTCGC'
p7996
I2408
tp7997
a(S'TATTTCTGAT'
p7998
I42
tp7999
a(S'TATTTCTTCA'
p8000
I1656
tp8001
a(S'TATTTGAATA'
p8002
I1381
tp8003
a(S'TATTTGTCTC'
p8004
I2897
tp8005
a(S'TATTTTAAAG'
p8006
I1402
tp8007
a(S'TATTTTACCA'
p8008
I3653
tp8009
a(S'TATTTTCGTG'
p8010
I4646
tp8011
a(S'TATTTTGACT'
p8012
I4019
tp8013
a(S'TATTTTGATA'
p8014
I2520
tp8015
a(S'TATTTTTCAT'
p8016
I3817
tp8017
a(S'TATTTTTGTG'
p8018
I4724
tp8019
a(S'TCAAAAACAT'
p8020
I1496
tp8021
a(S'TCAAAAACTG'
p8022
I210
tp8023
a(S'TCAAAAAGAG'
p8024
I3379
tp8025
a(S'TCAAAAAGAG'
p8026
I3445
tp8027
a(S'TCAAAAAGCC'
p8028
I3004
tp8029
a(S'TCAAAAATTA'
p8030
I817
tp8031
a(S'TCAAACGGCC'
p8032
I661
tp8033
a(S'TCAAACGGCT'
p8034
I3637
tp8035
a(S'TCAAACTGGC'
p8036
I1011
tp8037
a(S'TCAAACTTTT'
p8038
I2424
tp8039
a(S'TCAAAGAAAT'
p8040
I3672
tp8041
a(S'TCAAATTTAT'
p8042
I5337
tp8043
a(S'TCAACAATTT'
p8044
I951
tp8045
a(S'TCAACAGAAG'
p8046
I3532
tp8047
a(S'TCAACAGACC'
p8048
I1794
tp8049
a(S'TCAACATTCA'
p8050
I654
tp8051
a(S'TCAACCACTA'
p8052
I365
tp8053
a(S'TCAACCAGAT'
p8054
I5232
tp8055
a(S'TCAACGCCGC'
p8056
I2590
tp8057
a(S'TCAACGTTAT'
p8058
I2511
tp8059
a(S'TCAACTAACG'
p8060
I194
tp8061
a(S'TCAACTACTC'
p8062
I1093
tp8063
a(S'TCAAGATGAT'
p8064
I1458
tp8065
a(S'TCAAGATTGC'
p8066
I4472
tp8067
a(S'TCAAGCTCAA'
p8068
I3631
tp8069
a(S'TCAAGCTCTT'
p8070
I4131
tp8071
a(S'TCAAGGACTG'
p8072
I265
tp8073
a(S'TCAAGGACTG'
p8074
I2761
tp8075
a(S'TCAAGGCTCT'
p8076
I3097
tp8077
a(S'TCAAGGTGAT'
p8078
I3028
tp8079
a(S'TCAAGTTACT'
p8080
I394
tp8081
a(S'TCAATCATGA'
p8082
I2266
tp8083
a(S'TCAATCCCCA'
p8084
I4087
tp8085
a(S'TCACAATGAC'
p8086
I5163
tp8087
a(S'TCACACGCCG'
p8088
I4703
tp8089
a(S'TCACATTTTG'
p8090
I288
tp8091
a(S'TCACCTTCTT'
p8092
I2088
tp8093
a(S'TCACGCCAGA'
p8094
I3479
tp8095
a(S'TCACGCTGAT'
p8096
I4009
tp8097
a(S'TCACGTTCTG'
p8098
I4928
tp8099
a(S'TCACGTTGGC'
p8100
I4587
tp8101
a(S'TCACGTTTAT'
p8102
I1224
tp8103
a(S'TCACTAAAAA'
p8104
I5084
tp8105
a(S'TCACTGATGC'
p8106
I3789
tp8107
a(S'TCACTTCTGT'
p8108
I2452
tp8109
a(S'TCAGAAAGAG'
p8110
I3412
tp8111
a(S'TCAGAATCAG'
p8112
I5124
tp8113
a(S'TCAGAATGAG'
p8114
I5130
tp8115
a(S'TCAGACTTTT'
p8116
I2399
tp8117
a(S'TCAGATATGG'
p8118
I5033
tp8119
a(S'TCAGATGGAT'
p8120
I2573
tp8121
a(S'TCAGATTGGT'
p8122
I1068
tp8123
a(S'TCAGCAAACG'
p8124
I3718
tp8125
a(S'TCAGCGGTAT'
p8126
I3733
tp8127
a(S'TCAGCGTTTG'
p8128
I4522
tp8129
a(S'TCAGGAACCG'
p8130
I2115
tp8131
a(S'TCAGGATTGA'
p8132
I3920
tp8133
a(S'TCAGGCTTCT'
p8134
I451
tp8135
a(S'TCAGGGTTAT'
p8136
I1374
tp8137
a(S'TCAGGTTAAA'
p8138
I2214
tp8139
a(S'TCAGGTTATT'
p8140
I2879
tp8141
a(S'TCAGGTTGTT'
p8142
I2603
tp8143
a(S'TCAGTACCTT'
p8144
I1899
tp8145
a(S'TCAGTATTTT'
p8146
I3649
tp8147
a(S'TCAGTATTTT'
p8148
I4720
tp8149
a(S'TCAGTCGGCG'
p8150
I3466
tp8151
a(S'TCAGTGGTAT'
p8152
I2046
tp8153
a(S'TCAGTTGTTG'
p8154
I2193
tp8155
a(S'TCATATTGGC'
p8156
I3751
tp8157
a(S'TCATCAGCAA'
p8158
I3715
tp8159
a(S'TCATCATGGA'
p8160
I675
tp8161
a(S'TCATCCCGTC'
p8162
I646
tp8163
a(S'TCATCGTCAC'
p8164
I1218
tp8165
a(S'TCATGAAGGA'
p8166
I1253
tp8167
a(S'TCATGACTTC'
p8168
I2270
tp8169
a(S'TCATGAGTCA'
p8170
I387
tp8171
a(S'TCATGCAGCG'
p8172
I1634
tp8173
a(S'TCATGCCTCC'
p8174
I3951
tp8175
a(S'TCATGCGCTC'
p8176
I1712
tp8177
a(S'TCATGCTGAT'
p8178
I4552
tp8179
a(S'TCATGGAAGG'
p8180
I678
tp8181
a(S'TCATGGTAGA'
p8182
I299
tp8183
a(S'TCATGGTATT'
p8184
I3823
tp8185
a(S'TCATGGTTTG'
p8186
I2824
tp8187
a(S'TCATGTTTCA'
p8188
I2392
tp8189
a(S'TCATTCAGGA'
p8190
I2111
tp8191
a(S'TCATTCAGGC'
p8192
I447
tp8193
a(S'TCATTGCATT'
p8194
I2564
tp8195
a(S'TCATTGCTTA'
p8196
I630
tp8197
a(S'TCATTTCCAT'
p8198
I4765
tp8199
a(S'TCATTTGGAG'
p8200
I1663
tp8201
a(S'TCCAAATCTT'
p8202
I3958
tp8203
a(S'TCCAACCTGC'
p8204
I5375
tp8205
a(S'TCCAACTTAC'
p8206
I5196
tp8207
a(S'TCCAAGCAAC'
p8208
I3587
tp8209
a(S'TCCACGGAGT'
p8210
I5180
tp8211
a(S'TCCACTATGA'
p8212
I4490
tp8213
a(S'TCCAGACCGC'
p8214
I420
tp8215
a(S'TCCAGCCACT'
p8216
I2905
tp8217
a(S'TCCAGCTTCT'
p8218
I2465
tp8219
a(S'TCCAGTCCGT'
p8220
I2183
tp8221
a(S'TCCATAAGCA'
p8222
I4107
tp8223
a(S'TCCATGACGC'
p8224
I13
tp8225
a(S'TCCATGCGGT'
p8226
I4770
tp8227
a(S'TCCATTGCGT'
p8228
I1158
tp8229
a(S'TCCCAAGAAG'
p8230
I5110
tp8231
a(S'TCCCAATGCT'
p8232
I4627
tp8233
a(S'TCCCAATTGT'
p8234
I3935
tp8235
a(S'TCCCATCTTG'
p8236
I1045
tp8237
a(S'TCCCATTCAT'
p8238
I2105
tp8239
a(S'TCCCCAATGC'
p8240
I4091
tp8241
a(S'TCCCCCAACT'
p8242
I4293
tp8243
a(S'TCCCCGTACG'
p8244
I2789
tp8245
a(S'TCCCGACTGC'
p8246
I2701
tp8247
a(S'TCCCGACTGT'
p8248
I1283
tp8249
a(S'TCCCGTCAAC'
p8250
I649
tp8251
a(S'TCCCTAAGCA'
p8252
I1358
tp8253
a(S'TCCCTCATCG'
p8254
I1214
tp8255
a(S'TCCGACTACC'
p8256
I2690
tp8257
a(S'TCCGAGATTA'
p8258
I3605
tp8259
a(S'TCCGATGCTG'
p8260
I354
tp8261
a(S'TCCGCAGCCG'
p8262
I888
tp8263
a(S'TCCGCCTACT'
p8264
I1875
tp8265
a(S'TCCGCTTCCT'
p8266
I1515
tp8267
a(S'TCCGGTGGCA'
p8268
I3017
tp8269
a(S'TCCGGTTAAA'
p8270
I727
tp8271
a(S'TCCGGTTATC'
p8272
I1101
tp8273
a(S'TCCGTACGTT'
p8274
I410
tp8275
a(S'TCCGTCTTTC'
p8276
I1148
tp8277
a(S'TCCGTTCAGT'
p8278
I2188
tp8279
a(S'TCCGTTCTGG'
p8280
I2003
tp8281
a(S'TCCGTTGCTG'
p8282
I1481
tp8283
a(S'TCCTAACCCT'
p8284
I3112
tp8285
a(S'TCCTACAGGT'
p8286
I4798
tp8287
a(S'TCCTCCTGAG'
p8288
I1521
tp8289
a(S'TCCTCTCCCG'
p8290
I1278
tp8291
a(S'TCCTCTGCTG'
p8292
I3344
tp8293
a(S'TCCTGAGACT'
p8294
I1524
tp8295
a(S'TCCTGAGCAT'
p8296
I1833
tp8297
a(S'TCCTGAGCTT'
p8298
I3304
tp8299
a(S'TCCTGCTCCT'
p8300
I601
tp8301
a(S'TCCTGCTTAT'
p8302
I2079
tp8303
a(S'TCCTGTTGAG'
p8304
I607
tp8305
a(S'TCCTTCCCCG'
p8306
I2785
tp8307
a(S'TCCTTCGAGA'
p8308
I1120
tp8309
a(S'TCCTTGCGCA'
p8310
I150
tp8311
a(S'TCCTTGCTGG'
p8312
I1058
tp8313
a(S'TCCTTTACTT'
p8314
I1701
tp8315
a(S'TCCTTTGAAT'
p8316
I2723
tp8317
a(S'TCGAAAAATT'
p8318
I55
tp8319
a(S'TCGAAGTGGA'
p8320
I109
tp8321
a(S'TCGACCTATC'
p8322
I142
tp8323
a(S'TCGAGAAGCT'
p8324
I162
tp8325
a(S'TCGAGATGGA'
p8326
I1124
tp8327
a(S'TCGAGCGTCC'
p8328
I720
tp8329
a(S'TCGAGGCTCT'
p8330
I4038
tp8331
a(S'TCGATAAAAA'
p8332
I5354
tp8333
a(S'TCGATAATGG'
p8334
I4179
tp8335
a(S'TCGATTTTCT'
p8336
I489
tp8337
a(S'TCGCAAGGCT'
p8338
I4687
tp8339
a(S'TCGCAAGGTT'
p8340
I3685
tp8341
a(S'TCGCAATCTG'
p8342
I2241
tp8343
a(S'TCGCAGTTCG'
p8344
I4899
tp8345
a(S'TCGCCAAATG'
p8346
I1542
tp8347
a(S'TCGCCACCAT'
p8348
I2157
tp8349
a(S'TCGCCATAAT'
p8350
I2414
tp8351
a(S'TCGCCATCAA'
p8352
I188
tp8353
a(S'TCGCCATGAT'
p8354
I2735
tp8355
a(S'TCGCCCTGGT'
p8356
I876
tp8357
a(S'TCGCCGCCAG'
p8358
I4843
tp8359
a(S'TCGCGATGAG'
p8360
I4423
tp8361
a(S'TCGCGATTCA'
p8362
I2259
tp8363
a(S'TCGCGTAGAG'
p8364
I4502
tp8365
a(S'TCGCGTTGCG'
p8366
I3553
tp8367
a(S'TCGCGTTTAC'
p8368
I750
tp8369
a(S'TCGCTACACG'
p8370
I4906
tp8371
a(S'TCGCTACTTC'
p8372
I5102
tp8373
a(S'TCGCTGAATC'
p8374
I2871
tp8375
a(S'TCGCTGCGTT'
p8376
I544
tp8377
a(S'TCGCTGGCGA'
p8378
I1109
tp8379
a(S'TCGCTTCCAT'
p8380
I8
tp8381
a(S'TCGCTTTCCT'
p8382
I595
tp8383
a(S'TCGCTTTGAG'
p8384
I2669
tp8385
a(S'TCGGATATTT'
p8386
I37
tp8387
a(S'TCGGCACCTG'
p8388
I2475
tp8389
a(S'TCGGCCCCTT'
p8390
I975
tp8391
a(S'TCGGCGACTT'
p8392
I3470
tp8393
a(S'TCGGGATGAA'
p8394
I5148
tp8395
a(S'TCGGGTACGC'
p8396
I4831
tp8397
a(S'TCGGTTCCGA'
p8398
I2685
tp8399
a(S'TCGTATGCAG'
p8400
I4159
tp8401
a(S'TCGTATGGTT'
p8402
I4663
tp8403
a(S'TCGTATGTTT'
p8404
I2068
tp8405
a(S'TCGTCAACGT'
p8406
I2508
tp8407
a(S'TCGTCAAGGA'
p8408
I262
tp8409
a(S'TCGTCACGTT'
p8410
I1221
tp8411
a(S'TCGTCACTGA'
p8412
I3786
tp8413
a(S'TCGTCCGCAG'
p8414
I885
tp8415
a(S'TCGTCGCTGC'
p8416
I541
tp8417
a(S'TCGTCGGGTA'
p8418
I4828
tp8419
a(S'TCGTCTAAGA'
p8420
I2017
tp8421
a(S'TCGTCTTATT'
p8422
I1077
tp8423
a(S'TCGTCTTTGG'
p8424
I930
tp8425
a(S'TCGTGATAAA'
p8426
I2278
tp8427
a(S'TCGTGATATT'
p8428
I4651
tp8429
a(S'TCGTGATGAG'
p8430
I4228
tp8431
a(S'TCGTGATTAT'
p8432
I3280
tp8433
a(S'TCGTGCTCGT'
p8434
I535
tp8435
a(S'TCGTGGCCTT'
p8436
I1167
tp8437
a(S'TCGTGTTCAA'
p8438
I1788
tp8439
a(S'TCGTTAGGCC'
p8440
I1768
tp8441
a(S'TCGTTATGCG'
p8442
I2055
tp8443
a(S'TCGTTATGGT'
p8444
I1470
tp8445
a(S'TCGTTCTTAT'
p8446
I3985
tp8447
a(S'TCGTTTTCCG'
p8448
I1869
tp8449
a(S'TCGTTTTTGA'
p8450
I4572
tp8451
a(S'TCTAAAGGTA'
p8452
I850
tp8453
a(S'TCTAAATTGT'
p8454
I2984
tp8455
a(S'TCTAACTTTA'
p8456
I2835
tp8457
a(S'TCTAAGAAGT'
p8458
I2020
tp8459
a(S'TCTAATATTC'
p8460
I1003
tp8461
a(S'TCTAATCTCT'
p8462
I1720
tp8463
a(S'TCTAATGTCG'
p8464
I3779
tp8465
a(S'TCTAATGTTC'
p8466
I3104
tp8467
a(S'TCTAATTTGT'
p8468
I3896
tp8469
a(S'TCTACCACAT'
p8470
I1558
tp8471
a(S'TCTACTCTTT'
p8472
I4076
tp8473
a(S'TCTACTGCTC'
p8474
I3545
tp8475
a(S'TCTACTGTAG'
p8476
I1186
tp8477
a(S'TCTAGGAAAT'
p8478
I3905
tp8479
a(S'TCTAGGAGCT'
p8480
I5059
tp8481
a(S'TCTATAACAA'
p8482
I1391
tp8483
a(S'TCTATGAAGG'
p8484
I1987
tp8485
a(S'TCTATGTGGC'
p8486
I5004
tp8487
a(S'TCTATTAAGC'
p8488
I437
tp8489
a(S'TCTATTATGG'
p8490
I3563
tp8491
a(S'TCTATTGACA'
p8492
I1567
tp8493
a(S'TCTCAAAAAC'
p8494
I1494
tp8495
a(S'TCTCAATCCC'
p8496
I4085
tp8497
a(S'TCTCACGTTG'
p8498
I4585
tp8499
a(S'TCTCACTTCT'
p8500
I2450
tp8501
a(S'TCTCATATTG'
p8502
I3749
tp8503
a(S'TCTCATCATG'
p8504
I673
tp8505
a(S'TCTCCAGCCA'
p8506
I2903
tp8507
a(S'TCTCCATTGC'
p8508
I1156
tp8509
a(S'TCTCCCGACT'
p8510
I1281
tp8511
a(S'TCTCCGTCTT'
p8512
I1146
tp8513
a(S'TCTCCTGCTT'
p8514
I2077
tp8515
a(S'TCTCGCCAAA'
p8516
I1540
tp8517
a(S'TCTCGCCATA'
p8518
I2412
tp8519
a(S'TCTCGTGCTC'
p8520
I533
tp8521
a(S'TCTCTGGGCA'
p8522
I1725
tp8523
a(S'TCTCTTGTTG'
p8524
I312
tp8525
a(S'TCTGAATGTC'
p8526
I4001
tp8527
a(S'TCTGACGAGT'
p8528
I496
tp8529
a(S'TCTGACGTTC'
p8530
I4220
tp8531
a(S'TCTGAGTCCG'
p8532
I348
tp8533
a(S'TCTGATAAGC'
p8534
I2436
tp8535
a(S'TCTGATAAGT'
p8536
I3215
tp8537
a(S'TCTGATGAGT'
p8538
I46
tp8539
a(S'TCTGCAAGCT'
p8540
I1584
tp8541
a(S'TCTGCCATTC'
p8542
I3089
tp8543
a(S'TCTGCCGACC'
p8544
I2247
tp8545
a(S'TCTGCCGCTG'
p8546
I3254
tp8547
a(S'TCTGCCGTTT'
p8548
I458
tp8549
a(S'TCTGCCGTTT'
p8550
I3206
tp8551
a(S'TCTGCTCAAA'
p8552
I5332
tp8553
a(S'TCTGCTCTTG'
p8554
I2960
tp8555
a(S'TCTGCTGGTA'
p8556
I3347
tp8557
a(S'TCTGCTTAGG'
p8558
I2375
tp8559
a(S'TCTGGAAAGA'
p8560
I3864
tp8561
a(S'TCTGGCGCTC'
p8562
I868
tp8563
a(S'TCTGGCTATG'
p8564
I1735
tp8565
a(S'TCTGGGCATC'
p8566
I1727
tp8567
a(S'TCTGGTCGTG'
p8568
I1783
tp8569
a(S'TCTGGTGATT'
p8570
I2008
tp8571
a(S'TCTGGTGATT'
p8572
I2128
tp8573
a(S'TCTGGTGCTA'
p8574
I3146
tp8575
a(S'TCTGGTGTGG'
p8576
I3803
tp8577
a(S'TCTGGTTGGT'
p8578
I4934
tp8579
a(S'TCTGTCAAAA'
p8580
I206
tp8581
a(S'TCTGTCAACG'
p8582
I2586
tp8583
a(S'TCTGTCCACG'
p8584
I5176
tp8585
a(S'TCTGTCTTTT'
p8586
I4150
tp8587
a(S'TCTGTGCCGC'
p8588
I1813
tp8589
a(S'TCTGTTACTC'
p8590
I2457
tp8591
a(S'TCTGTTACTG'
p8592
I4244
tp8593
a(S'TCTGTTGGTG'
p8594
I2613
tp8595
a(S'TCTTAAACCT'
p8596
I4045
tp8597
a(S'TCTTAAGGAT'
p8598
I4411
tp8599
a(S'TCTTACTGAC'
p8600
I790
tp8601
a(S'TCTTACTTTG'
p8602
I171
tp8603
a(S'TCTTATGACG'
p8604
I1681
tp8605
a(S'TCTTATTACC'
p8606
I1080
tp8607
a(S'TCTTATTACC'
p8608
I3989
tp8609
a(S'TCTTCATTGC'
p8610
I2561
tp8611
a(S'TCTTCATTTC'
p8612
I4762
tp8613
a(S'TCTTCATTTG'
p8614
I1660
tp8615
a(S'TCTTCGGCAC'
p8616
I2472
tp8617
a(S'TCTTCGGTTC'
p8618
I2682
tp8619
a(S'TCTTCTCATA'
p8620
I3746
tp8621
a(S'TCTTCTTCGG'
p8622
I2679
tp8623
a(S'TCTTGAAGGC'
p8624
I2094
tp8625
a(S'TCTTGAAGGT'
p8626
I3178
tp8627
a(S'TCTTGATAAA'
p8628
I66
tp8629
a(S'TCTTGCGCTT'
p8630
I1857
tp8631
a(S'TCTTGCTGCC'
p8632
I4672
tp8633
a(S'TCTTGCTGCT'
p8634
I3289
tp8635
a(S'TCTTGCTGGT'
p8636
I2965
tp8637
a(S'TCTTGGAAGA'
p8638
I4137
tp8639
a(S'TCTTGGAGGC'
p8640
I3964
tp8641
a(S'TCTTGGCACG'
p8642
I1326
tp8643
a(S'TCTTGGCTTC'
p8644
I1050
tp8645
a(S'TCTTGTTGAC'
p8646
I314
tp8647
a(S'TCTTTCCAAG'
p8648
I3583
tp8649
a(S'TCTTTCTCAA'
p8650
I4081
tp8651
a(S'TCTTTCTCCA'
p8652
I1152
tp8653
a(S'TCTTTGGTAT'
p8654
I933
tp8655
a(S'TCTTTGTTCC'
p8656
I1826
tp8657
a(S'TCTTTTCGTA'
p8658
I4154
tp8659
a(S'TGAAAATGCT'
p8660
I5154
tp8661
a(S'TGAAATCGCG'
p8662
I4497
tp8663
a(S'TGAAATTTCT'
p8664
I1980
tp8665
a(S'TGAACAATCC'
p8666
I403
tp8667
a(S'TGAACAGTGG'
p8668
I1236
tp8669
a(S'TGAACGCCCT'
p8670
I4402
tp8671
a(S'TGAAGCAGAA'
p8672
I5244
tp8673
a(S'TGAAGGATGG'
p8674
I1256
tp8675
a(S'TGAAGGATGT'
p8676
I1991
tp8677
a(S'TGAAGGCTTC'
p8678
I2097
tp8679
a(S'TGAAGGTACG'
p8680
I3181
tp8681
a(S'TGAATATCTA'
p8682
I1385
tp8683
a(S'TGAATCAGGT'
p8684
I2875
tp8685
a(S'TGAATGCAAT'
p8686
I4533
tp8687
a(S'TGAATGGTCG'
p8688
I2728
tp8689
a(S'TGAATGTCAC'
p8690
I4003
tp8691
a(S'TGAATTGGCA'
p8692
I4267
tp8693
a(S'TGAATTGTTC'
p8694
I742
tp8695
a(S'TGAATTTACG'
p8696
I691
tp8697
a(S'TGACAAATCT'
p8698
I5169
tp8699
a(S'TGACAACCGT'
p8700
I1692
tp8701
a(S'TGACACCCTC'
p8702
I3927
tp8703
a(S'TGACACTCTC'
p8704
I4579
tp8705
a(S'TGACATTATG'
p8706
I1572
tp8707
a(S'TGACATTTTA'
p8708
I320
tp8709
a(S'TGACCAAACG'
p8710
I1758
tp8711
a(S'TGACCAAATC'
p8712
I3664
tp8713
a(S'TGACCAAGAA'
p8714
I1614
tp8715
a(S'TGACCAAGCG'
p8716
I2350
tp8717
a(S'TGACCAGTGT'
p8718
I2172
tp8719
a(S'TGACCATGCC'
p8720
I1311
tp8721
a(S'TGACCCTAAT'
p8722
I4813
tp8723
a(S'TGACCGCTCT'
p8724
I526
tp8725
a(S'TGACCGTACC'
p8726
I1425
tp8727
a(S'TGACCGTTTA'
p8728
I2231
tp8729
a(S'TGACCTTTCC'
p8730
I1038
tp8731
a(S'TGACGACAAA'
p8732
I5322
tp8733
a(S'TGACGACCGA'
p8734
I4597
tp8735
a(S'TGACGACTTC'
p8736
I1550
tp8737
a(S'TGACGAGTAA'
p8738
I498
tp8739
a(S'TGACGCAGAA'
p8740
I17
tp8741
a(S'TGACGCAGAA'
p8742
I796
tp8743
a(S'TGACGCCGGA'
p8744
I3361
tp8745
a(S'TGACGCGTTG'
p8746
I218
tp8747
a(S'TGACGCTGAC'
p8748
I1686
tp8749
a(S'TGACGGCCAT'
p8750
I4201
tp8751
a(S'TGACGGTTAA'
p8752
I2533
tp8753
a(S'TGACGTCCTT'
p8754
I2780
tp8755
a(S'TGACGTTCGT'
p8756
I4222
tp8757
a(S'TGACGTTCTT'
p8758
I784
tp8759
a(S'TGACTATTGA'
p8760
I2773
tp8761
a(S'TGACTATTTT'
p8762
I4642
tp8763
a(S'TGACTCGCAA'
p8764
I3681
tp8765
a(S'TGACTCTACT'
p8766
I1182
tp8767
a(S'TGACTTAGTT'
p8768
I3706
tp8769
a(S'TGACTTATAC'
p8770
I1925
tp8771
a(S'TGACTTCGTG'
p8772
I2273
tp8773
a(S'TGACTTTGAG'
p8774
I4024
tp8775
a(S'TGAGAAAATT'
p8776
I133
tp8777
a(S'TGAGAAGTTA'
p8778
I4252
tp8779
a(S'TGAGAATCAA'
p8780
I3373
tp8781
a(S'TGAGACTCAA'
p8782
I3439
tp8783
a(S'TGAGACTGAG'
p8784
I1527
tp8785
a(S'TGAGATGCTT'
p8786
I3517
tp8787
a(S'TGAGATTGAG'
p8788
I5268
tp8789
a(S'TGAGCATGGC'
p8790
I1836
tp8791
a(S'TGAGCCGCAA'
p8792
I5136
tp8793
a(S'TGAGCCGCTT'
p8794
I4966
tp8795
a(S'TGAGCGTATC'
p8796
I4030
tp8797
a(S'TGAGCTTAAT'
p8798
I1449
tp8799
a(S'TGAGCTTAAT'
p8800
I3307
tp8801
a(S'TGAGCTTTCT'
p8802
I1533
tp8803
a(S'TGAGGAGAAG'
p8804
I230
tp8805
a(S'TGAGGATAAA'
p8806
I988
tp8807
a(S'TGAGGCCGCC'
p8808
I3124
tp8809
a(S'TGAGGCTGGG'
p8810
I5274
tp8811
a(S'TGAGGCTTGC'
p8812
I553
tp8813
a(S'TGAGGCTTGT'
p8814
I4060
tp8815
a(S'TGAGGGGTTG'
p8816
I2342
tp8817
a(S'TGAGGGTCAG'
p8818
I2040
tp8819
a(S'TGAGGTGATT'
p8820
I2919
tp8821
a(S'TGAGGTTATA'
p8822
I2298
tp8823
a(S'TGAGGTTGAC'
p8824
I3700
tp8825
a(S'TGAGTATAAT'
p8826
I4429
tp8827
a(S'TGAGTATGGT'
p8828
I4738
tp8829
a(S'TGAGTCAAGT'
p8830
I390
tp8831
a(S'TGAGTCACAT'
p8832
I284
tp8833
a(S'TGAGTCCGAT'
p8834
I350
tp8835
a(S'TGAGTCGAAA'
p8836
I51
tp8837
a(S'TGAGTCTTCT'
p8838
I2675
tp8839
a(S'TGAGTGTGAG'
p8840
I2292
tp8841
a(S'TGAGTGTTCA'
p8842
I4465
tp8843
a(S'TGAGTTCGAT'
p8844
I4174
tp8845
a(S'TGAGTTTATT'
p8846
I613
tp8847
a(S'TGAGTTTGTA'
p8848
I4234
tp8849
a(S'TGATAAAAGA'
p8850
I2281
tp8851
a(S'TGATAAAGCA'
p8852
I69
tp8853
a(S'TGATAAAGCT'
p8854
I3832
tp8855
a(S'TGATAAAGGA'
p8856
I3262
tp8857
a(S'TGATAAGCTG'
p8858
I2438
tp8859
a(S'TGATAAGTTG'
p8860
I3217
tp8861
a(S'TGATAATCCC'
p8862
I4621
tp8863
a(S'TGATACCAAT'
p8864
I1344
tp8865
a(S'TGATAGTTTG'
p8866
I2525
tp8867
a(S'TGATATGTAT'
p8868
I4189
tp8869
a(S'TGATATTAAT'
p8870
I4303
tp8871
a(S'TGATATTGCT'
p8872
I2624
tp8873
a(S'TGATATTGGT'
p8874
I4654
tp8875
a(S'TGATATTTTT'
p8876
I3814
tp8877
a(S'TGATGAATGC'
p8878
I4530
tp8879
a(S'TGATGAGGCC'
p8880
I3121
tp8881
a(S'TGATGAGTCG'
p8882
I48
tp8883
a(S'TGATGAGTTT'
p8884
I4231
tp8885
a(S'TGATGCCGAC'
p8886
I2636
tp8887
a(S'TGATGCTAAA'
p8888
I4954
tp8889
a(S'TGATGCTCGT'
p8890
I1464
tp8891
a(S'TGATGCTGCT'
p8892
I3793
tp8893
a(S'TGATGCTGGT'
p8894
I3073
tp8895
a(S'TGATGCTTCC'
p8896
I3337
tp8897
a(S'TGATGGAACT'
p8898
I1749
tp8899
a(S'TGATGGTATT'
p8900
I3883
tp8901
a(S'TGATGGTGGT'
p8902
I2741
tp8903
a(S'TGATGGTTGG'
p8904
I4558
tp8905
a(S'TGATGTAATG'
p8906
I840
tp8907
a(S'TGATGTGCTT'
p8908
I3034
tp8909
a(S'TGATGTTATT'
p8910
I1650
tp8911
a(S'TGATGTTGAT'
p8912
I1743
tp8913
a(S'TGATGTTTAT'
p8914
I2714
tp8915
a(S'TGATTACTTC'
p8916
I1626
tp8917
a(S'TGATTATCTT'
p8918
I3283
tp8919
a(S'TGATTATGAC'
p8920
I2166
tp8921
a(S'TGATTATTTT'
p8922
I4015
tp8923
a(S'TGATTCACAC'
p8924
I4699
tp8925
a(S'TGATTCGTCT'
p8926
I2013
tp8927
a(S'TGATTGGCGT'
p8928
I5364
tp8929
a(S'TGATTTATGT'
p8930
I2924
tp8931
a(S'TGATTTCGAT'
p8932
I484
tp8933
a(S'TGATTTGCAA'
p8934
I2133
tp8935
a(S'TGATTTGGTT'
p8936
I3229
tp8937
a(S'TGCAAAATAC'
p8938
I4863
tp8939
a(S'TGCAAAATGA'
p8940
I3432
tp8941
a(S'TGCAAAGGAT'
p8942
I3766
tp8943
a(S'TGCAACTGGA'
p8944
I3399
tp8945
a(S'TGCAAGAACG'
p8946
I2138
tp8947
a(S'TGCAAGCTGC'
p8948
I1586
tp8949
a(S'TGCAATGCGA'
p8950
I4537
tp8951
a(S'TGCACAAAAT'
p8952
I3508
tp8953
a(S'TGCACTTTAT'
p8954
I4779
tp8955
a(S'TGCAGCGTTA'
p8956
I1637
tp8957
a(S'TGCAGGCTGG'
p8958
I3192
tp8959
a(S'TGCAGGGCGT'
p8960
I4164
tp8961
a(S'TGCAGGGGCT'
p8962
I965
tp8963
a(S'TGCAGTGGAA'
p8964
I2201
tp8965
a(S'TGCATACTGA'
p8966
I1607
tp8967
a(S'TGCATTCAGA'
p8968
I2568
tp8969
a(S'TGCATTTCCT'
p8970
I3298
tp8971
a(S'TGCCACTCCT'
p8972
I1272
tp8973
a(S'TGCCATCTCA'
p8974
I1489
tp8975
a(S'TGCCATTCAA'
p8976
I3091
tp8977
a(S'TGCCCATCGC'
p8978
I4893
tp8979
a(S'TGCCGACCAC'
p8980
I2249
tp8981
a(S'TGCCGACCCT'
p8982
I2639
tp8983
a(S'TGCCGAGATG'
p8984
I3424
tp8985
a(S'TGCCGAGGGT'
p8986
I4678
tp8987
a(S'TGCCGATACT'
p8988
I3844
tp8989
a(S'TGCCGCAAGC'
p8990
I4385
tp8991
a(S'TGCCGCATGA'
p8992
I1031
tp8993
a(S'TGCCGCCGCG'
p8994
I1970
tp8995
a(S'TGCCGCGGAT'
p8996
I2856
tp8997
a(S'TGCCGCGTTT'
p8998
I1817
tp8999
a(S'TGCCGCTGAG'
p9000
I2336
tp9001
a(S'TGCCGCTGAT'
p9002
I3256
tp9003
a(S'TGCCGCTTTT'
p9004
I1317
tp9005
a(S'TGCCGTCATT'
p9006
I625
tp9007
a(S'TGCCGTTTCT'
p9008
I3208
tp9009
a(S'TGCCGTTTTG'
p9010
I460
tp9011
a(S'TGCCTATGAT'
p9012
I2708
tp9013
a(S'TGCCTCCAAA'
p9014
I3954
tp9015
a(S'TGCCTGACCG'
p9016
I1421
tp9017
a(S'TGCCTGAGTA'
p9018
I4734
tp9019
a(S'TGCCTGTTTG'
p9020
I2657
tp9021
a(S'TGCGACAGGC'
p9022
I4542
tp9023
a(S'TGCGACCTTT'
p9024
I179
tp9025
a(S'TGCGACTAAA'
p9026
I1884
tp9027
a(S'TGCGAGGTAC'
p9028
I899
tp9029
a(S'TGCGCAGCTC'
p9030
I154
tp9031
a(S'TGCGCCAAAT'
p9032
I3615
tp9033
a(S'TGCGCCTTCG'
p9034
I2061
tp9035
a(S'TGCGCGCTTC'
p9036
I5346
tp9037
a(S'TGCGCTCTAA'
p9038
I1715
tp9039
a(S'TGCGCTTGTT'
p9040
I1860
tp9041
a(S'TGCGGAAGGA'
p9042
I829
tp9043
a(S'TGCGGACACT'
p9044
I4788
tp9045
a(S'TGCGGTGCAC'
p9046
I4774
tp9047
a(S'TGCGTCAAAA'
p9048
I813
tp9049
a(S'TGCGTCGTGG'
p9050
I1163
tp9051
a(S'TGCGTCTATT'
p9052
I3559
tp9053
a(S'TGCGTGACTA'
p9054
I4638
tp9055
a(S'TGCGTGTACG'
p9056
I762
tp9057
a(S'TGCGTTGAGG'
p9058
I548
tp9059
a(S'TGCGTTTATG'
p9060
I560
tp9061
a(S'TGCTAAAGGT'
p9062
I4957
tp9063
a(S'TGCTAAAGGT'
p9064
I5050
tp9065
a(S'TGCTAATTTG'
p9066
I1599
tp9067
a(S'TGCTACAATG'
p9068
I4280
tp9069
a(S'TGCTACCGAT'
p9070
I3043
tp9071
a(S'TGCTACTGAC'
p9072
I520
tp9073
a(S'TGCTATCAGT'
p9074
I4715
tp9075
a(S'TGCTATGGCT'
p9076
I3151
tp9077
a(S'TGCTATTCAG'
p9078
I4516
tp9079
a(S'TGCTATTGAC'
p9080
I1176
tp9081
a(S'TGCTATTGAG'
p9082
I4054
tp9083
a(S'TGCTATTGCT'
p9084
I2938
tp9085
a(S'TGCTCAAATT'
p9086
I5334
tp9087
a(S'TGCTCACAAT'
p9088
I5160
tp9089
a(S'TGCTCCCCCA'
p9090
I4290
tp9091
a(S'TGCTCCGCTT'
p9092
I1512
tp9093
a(S'TGCTCCTGTT'
p9094
I604
tp9095
a(S'TGCTCGCGTT'
p9096
I3550
tp9097
a(S'TGCTCGTCGC'
p9098
I538
tp9099
a(S'TGCTCGTTAT'
p9100
I1467
tp9101
a(S'TGCTCTTGCT'
p9102
I2962
tp9103
a(S'TGCTGAACGC'
p9104
I4399
tp9105
a(S'TGCTGAGGGT'
p9106
I2037
tp9107
a(S'TGCTGAGGTT'
p9108
I3697
tp9109
a(S'TGCTGATATT'
p9110
I2621
tp9111
a(S'TGCTGATGCT'
p9112
I3334
tp9113
a(S'TGCTGATGGT'
p9114
I4555
tp9115
a(S'TGCTGCATTT'
p9116
I3295
tp9117
a(S'TGCTGCCATC'
p9118
I1486
tp9119
a(S'TGCTGCCGAG'
p9120
I4675
tp9121
a(S'TGCTGCCGTC'
p9122
I622
tp9123
a(S'TGCTGCTAAA'
p9124
I5047
tp9125
a(S'TGCTGCTGCA'
p9126
I3292
tp9127
a(S'TGCTGCTTCT'
p9128
I3796
tp9129
a(S'TGCTGGAGGC'
p9130
I4479
tp9131
a(S'TGCTGGCATT'
p9132
I3457
tp9133
a(S'TGCTGGCGAC'
p9134
I1941
tp9135
a(S'TGCTGGCGGA'
p9136
I120
tp9137
a(S'TGCTGGCGGT'
p9138
I2944
tp9139
a(S'TGCTGGTAAT'
p9140
I2543
tp9141
a(S'TGCTGGTATG'
p9142
I3349
tp9143
a(S'TGCTGGTATT'
p9144
I3076
tp9145
a(S'TGCTGGTCAG'
p9146
I1062
tp9147
a(S'TGCTGGTGCT'
p9148
I3328
tp9149
a(S'TGCTGGTGGC'
p9150
I2968
tp9151
a(S'TGCTGTTCAA'
p9152
I359
tp9153
a(S'TGCTTAATCC'
p9154
I5189
tp9155
a(S'TGCTTACTCA'
p9156
I3624
tp9157
a(S'TGCTTAGGAG'
p9158
I2377
tp9159
a(S'TGCTTATCAA'
p9160
I3526
tp9161
a(S'TGCTTATCAC'
p9162
I2082
tp9163
a(S'TGCTTATGCT'
p9164
I1593
tp9165
a(S'TGCTTATTAT'
p9166
I634
tp9167
a(S'TGCTTCCTCT'
p9168
I3340
tp9169
a(S'TGCTTCTGAC'
p9170
I4216
tp9171
a(S'TGCTTCTGCT'
p9172
I2956
tp9173
a(S'TGCTTCTGGT'
p9174
I3799
tp9175
a(S'TGCTTGATTT'
p9176
I3225
tp9177
a(S'TGCTTGCTAC'
p9178
I3039
tp9179
a(S'TGCTTGCTTA'
p9180
I3522
tp9181
a(S'TGCTTGGCAC'
p9182
I250
tp9183
a(S'TGCTTGGCTT'
p9184
I4098
tp9185
a(S'TGCTTGGGAG'
p9186
I3316
tp9187
a(S'TGCTTGTTTA'
p9188
I90
tp9189
a(S'TGCTTTGACT'
p9190
I1920
tp9191
a(S'TGCTTTGCGT'
p9192
I4633
tp9193
a(S'TGCTTTTGAT'
p9194
I2630
tp9195
a(S'TGGAAAACAC'
p9196
I3570
tp9197
a(S'TGGAAAGACG'
p9198
I3866
tp9199
a(S'TGGAACAACT'
p9200
I5075
tp9201
a(S'TGGAACAATT'
p9202
I3854
tp9203
a(S'TGGAACTGAC'
p9204
I1752
tp9205
a(S'TGGAAGAGAT'
p9206
I4140
tp9207
a(S'TGGAAGGCGC'
p9208
I681
tp9209
a(S'TGGAATAGTC'
p9210
I2206
tp9211
a(S'TGGACAATCA'
p9212
I3405
tp9213
a(S'TGGACCTTGC'
p9214
I5040
tp9215
a(S'TGGACGCCGT'
p9216
I1130
tp9217
a(S'TGGACTGCTC'
p9218
I1507
tp9219
a(S'TGGACTGCTG'
p9220
I115
tp9221
a(S'TGGACTTGGT'
p9222
I3238
tp9223
a(S'TGGACTTTGT'
p9224
I576
tp9225
a(S'TGGAGGCCTC'
p9226
I4482
tp9227
a(S'TGGAGGCGGT'
p9228
I2995
tp9229
a(S'TGGAGGCTTT'
p9230
I3967
tp9231
a(S'TGGAGGTAAA'
p9232
I1668
tp9233
a(S'TGGATAACCG'
p9234
I4119
tp9235
a(S'TGGATACATC'
p9236
I2578
tp9237
a(S'TGGATGAATT'
p9238
I4263
tp9239
a(S'TGGATGAGGA'
p9240
I226
tp9241
a(S'TGGATGCCTG'
p9242
I1417
tp9243
a(S'TGGATTAAGT'
p9244
I1243
tp9245
a(S'TGGATTACTA'
p9246
I338
tp9247
a(S'TGGATTGCTA'
p9248
I515
tp9249
a(S'TGGATTTAAC'
p9250
I468
tp9251
a(S'TGGCAACTTG'
p9252
I1962
tp9253
a(S'TGGCAAGTCT'
p9254
I3247
tp9255
a(S'TGGCACAATG'
p9256
I4272
tp9257
a(S'TGGCACGATT'
p9258
I1329
tp9259
a(S'TGGCACGTTC'
p9260
I254
tp9261
a(S'TGGCACTATG'
p9262
I1842
tp9263
a(S'TGGCACTTCT'
p9264
I3199
tp9265
a(S'TGGCATTCAA'
p9266
I3022
tp9267
a(S'TGGCATTCAG'
p9268
I3460
tp9269
a(S'TGGCATTTCT'
p9270
I4069
tp9271
a(S'TGGCCGTCTT'
p9272
I4756
tp9273
a(S'TGGCCTCTAT'
p9274
I432
tp9275
a(S'TGGCCTGTTG'
p9276
I4946
tp9277
a(S'TGGCCTTATG'
p9278
I4874
tp9279
a(S'TGGCCTTGCT'
p9280
I1170
tp9281
a(S'TGGCGACCCT'
p9282
I1944
tp9283
a(S'TGGCGACTCC'
p9284
I1113
tp9285
a(S'TGGCGCCATG'
p9286
I2974
tp9287
a(S'TGGCGCCGAG'
p9288
I1017
tp9289
a(S'TGGCGCTACT'
p9290
I3757
tp9291
a(S'TGGCGCTCGC'
p9292
I870
tp9293
a(S'TGGCGCTCTC'
p9294
I1140
tp9295
a(S'TGGCGGAAAA'
p9296
I123
tp9297
a(S'TGGCGGCGCA'
p9298
I5307
tp9299
a(S'TGGCGGTATT'
p9300
I2947
tp9301
a(S'TGGCGTATCC'
p9302
I5368
tp9303
a(S'TGGCGTCGAG'
p9304
I715
tp9305
a(S'TGGCTAAAGC'
p9306
I3156
tp9307
a(S'TGGCTAAATA'
p9308
I5010
tp9309
a(S'TGGCTATGAT'
p9310
I1737
tp9311
a(S'TGGCTCTAAT'
p9312
I3892
tp9313
a(S'TGGCTCTTCT'
p9314
I3742
tp9315
a(S'TGGCTGACGA'
p9316
I4593
tp9317
a(S'TGGCTGCTGA'
p9318
I4395
tp9319
a(S'TGGCTGTTGG'
p9320
I4992
tp9321
a(S'TGGCTTAATA'
p9322
I240
tp9323
a(S'TGGCTTCCAT'
p9324
I4102
tp9325
a(S'TGGCTTCCTT'
p9326
I1053
tp9327
a(S'TGGGAAAAGT'
p9328
I5280
tp9329
a(S'TGGGAGCGTG'
p9330
I3320
tp9331
a(S'TGGGATACCC'
p9332
I585
tp9333
a(S'TGGGCATCTG'
p9334
I1729
tp9335
a(S'TGGGTCTGCA'
p9336
I1580
tp9337
a(S'TGGGTGATGC'
p9338
I3069
tp9339
a(S'TGGGTTACGA'
p9340
I5211
tp9341
a(S'TGGTAAAGGA'
p9342
I3166
tp9343
a(S'TGGTAATGGT'
p9344
I2546
tp9345
a(S'TGGTACAGCT'
p9346
I4744
tp9347
a(S'TGGTACGCTG'
p9348
I568
tp9349
a(S'TGGTAGAGAT'
p9350
I302
tp9351
a(S'TGGTATCGTT'
p9352
I2050
tp9353
a(S'TGGTATGGTT'
p9354
I3352
tp9355
a(S'TGGTATGTAG'
p9356
I937
tp9357
a(S'TGGTATTAAA'
p9358
I3079
tp9359
a(S'TGGTATTGAT'
p9360
I3826
tp9361
a(S'TGGTATTGGC'
p9362
I3886
tp9363
a(S'TGGTCAACAA'
p9364
I948
tp9365
a(S'TGGTCAGATT'
p9366
I1065
tp9367
a(S'TGGTCAGTAT'
p9368
I3646
tp9369
a(S'TGGTCGCCAT'
p9370
I2732
tp9371
a(S'TGGTCGTATG'
p9372
I4660
tp9373
a(S'TGGTCGTCCG'
p9374
I882
tp9375
a(S'TGGTCGTCGG'
p9376
I4825
tp9377
a(S'TGGTCGTCTT'
p9378
I1074
tp9379
a(S'TGGTCGTGTT'
p9380
I1785
tp9381
a(S'TGGTCTAACT'
p9382
I2832
tp9383
a(S'TGGTGAACAG'
p9384
I1233
tp9385
a(S'TGGTGATATG'
p9386
I4186
tp9387
a(S'TGGTGATTCG'
p9388
I2010
tp9389
a(S'TGGTGATTTG'
p9390
I2130
tp9391
a(S'TGGTGCTATG'
p9392
I3148
tp9393
a(S'TGGTGCTATT'
p9394
I2935
tp9395
a(S'TGGTGCTGAT'
p9396
I2618
tp9397
a(S'TGGTGCTGAT'
p9398
I3331
tp9399
a(S'TGGTGGCAAG'
p9400
I3244
tp9401
a(S'TGGTGGCGCC'
p9402
I2971
tp9403
a(S'TGGTGGTTAT'
p9404
I2744
tp9405
a(S'TGGTGGTTTT'
p9406
I2552
tp9407
a(S'TGGTGTGGTT'
p9408
I3805
tp9409
a(S'TGGTGTTAAT'
p9410
I1263
tp9411
a(S'TGGTTACAGT'
p9412
I4882
tp9413
a(S'TGGTTATATT'
p9414
I1302
tp9415
a(S'TGGTTATTAT'
p9416
I2747
tp9417
a(S'TGGTTCGCTT'
p9418
I2665
tp9419
a(S'TGGTTCGTTC'
p9420
I3981
tp9421
a(S'TGGTTCTCAC'
p9422
I2446
tp9423
a(S'TGGTTCTTGC'
p9424
I4668
tp9425
a(S'TGGTTGACGC'
p9426
I3357
tp9427
a(S'TGGTTGATAT'
p9428
I3810
tp9429
a(S'TGGTTGGACT'
p9430
I3234
tp9431
a(S'TGGTTGGTTG'
p9432
I4936
tp9433
a(S'TGGTTGGTTT'
p9434
I4561
tp9435
a(S'TGGTTGTGGC'
p9436
I4940
tp9437
a(S'TGGTTTAGAT'
p9438
I273
tp9439
a(S'TGGTTTATCG'
p9440
I4565
tp9441
a(S'TGGTTTCATG'
p9442
I2819
tp9443
a(S'TGGTTTCCGT'
p9444
I1476
tp9445
a(S'TGGTTTCGCT'
p9446
I2866
tp9447
a(S'TGGTTTCTAT'
p9448
I4999
tp9449
a(S'TGGTTTGGTC'
p9450
I2827
tp9451
a(S'TGGTTTTCTT'
p9452
I2555
tp9453
a(S'TGGTTTTTAG'
p9454
I4349
tp9455
a(S'TGTAATGTCT'
p9456
I843
tp9457
a(S'TGTACGCGCA'
p9458
I766
tp9459
a(S'TGTAGACATT'
p9460
I1191
tp9461
a(S'TGTAGCCGAC'
p9462
I5293
tp9463
a(S'TGTAGGCATG'
p9464
I3061
tp9465
a(S'TGTAGGTGGT'
p9466
I942
tp9467
a(S'TGTATCTGTT'
p9468
I4240
tp9469
a(S'TGTATGGCAA'
p9470
I1958
tp9471
a(S'TGTATGTTGA'
p9472
I4194
tp9473
a(S'TGTATGTTTT'
p9474
I3942
tp9475
a(S'TGTCAAAAAC'
p9476
I208
tp9477
a(S'TGTCAACGCC'
p9478
I2588
tp9479
a(S'TGTCACGCTG'
p9480
I4007
tp9481
a(S'TGTCATGCGC'
p9482
I1710
tp9483
a(S'TGTCCACGGA'
p9484
I5178
tp9485
a(S'TGTCCCTCAT'
p9486
I1212
tp9487
a(S'TGTCGCTACT'
p9488
I5100
tp9489
a(S'TGTCGTCACT'
p9490
I3784
tp9491
a(S'TGTCTAAAGG'
p9492
I848
tp9493
a(S'TGTCTAAATT'
p9494
I2982
tp9495
a(S'TGTCTAATAT'
p9496
I1001
tp9497
a(S'TGTCTAGGAA'
p9498
I3903
tp9499
a(S'TGTCTCATCA'
p9500
I671
tp9501
a(S'TGTCTCCAGC'
p9502
I2901
tp9503
a(S'TGTCTTTTCG'
p9504
I4152
tp9505
a(S'TGTGACCGTT'
p9506
I2229
tp9507
a(S'TGTGACGACA'
p9508
I5320
tp9509
a(S'TGTGACTATT'
p9510
I2771
tp9511
a(S'TGTGAGGTTA'
p9512
I2296
tp9513
a(S'TGTGCCGCGT'
p9514
I1815
tp9515
a(S'TGTGCCTGAG'
p9516
I4732
tp9517
a(S'TGTGCTCCCC'
p9518
I4288
tp9519
a(S'TGTGCTTGCT'
p9520
I3037
tp9521
a(S'TGTGGCATTT'
p9522
I4067
tp9523
a(S'TGTGGCCTGT'
p9524
I4944
tp9525
a(S'TGTGGCTAAA'
p9526
I5008
tp9527
a(S'TGTGGGATAC'
p9528
I583
tp9529
a(S'TGTGGTTGAT'
p9530
I3808
tp9531
a(S'TGTGTGACTA'
p9532
I2769
tp9533
a(S'TGTGTGCCTG'
p9534
I4730
tp9535
a(S'TGTTAACACT'
p9536
I1290
tp9537
a(S'TGTTAATGCC'
p9538
I1266
tp9539
a(S'TGTTACTCCA'
p9540
I2459
tp9541
a(S'TGTTACTGAG'
p9542
I4246
tp9543
a(S'TGTTATTTCT'
p9544
I1653
tp9545
a(S'TGTTCAACAG'
p9546
I1791
tp9547
a(S'TGTTCAACCA'
p9548
I362
tp9549
a(S'TGTTCAAGAT'
p9550
I4469
tp9551
a(S'TGTTCAGAAT'
p9552
I5121
tp9553
a(S'TGTTCATCCC'
p9554
I643
tp9555
a(S'TGTTCATGGT'
p9556
I296
tp9557
a(S'TGTTCCTAAC'
p9558
I3109
tp9559
a(S'TGTTCCTGAG'
p9560
I1830
tp9561
a(S'TGTTCGCGTT'
p9562
I747
tp9563
a(S'TGTTCGTTTT'
p9564
I1866
tp9565
a(S'TGTTGACATT'
p9566
I317
tp9567
a(S'TGTTGACGGC'
p9568
I4198
tp9569
a(S'TGTTGAGTTT'
p9570
I610
tp9571
a(S'TGTTGATGCT'
p9572
I4951
tp9573
a(S'TGTTGATGGA'
p9574
I1746
tp9575
a(S'TGTTGCAGTG'
p9576
I2198
tp9577
a(S'TGTTGCCGAT'
p9578
I3841
tp9579
a(S'TGTTGGTGCT'
p9580
I2615
tp9581
a(S'TGTTGGTTTC'
p9582
I2816
tp9583
a(S'TGTTGGTTTC'
p9584
I4996
tp9585
a(S'TGTTTACGAA'
p9586
I94
tp9587
a(S'TGTTTACTCT'
p9588
I1850
tp9589
a(S'TGTTTATCCT'
p9590
I2717
tp9591
a(S'TGTTTCAGAC'
p9592
I2395
tp9593
a(S'TGTTTCAGGG'
p9594
I1370
tp9595
a(S'TGTTTCCAGT'
p9596
I2179
tp9597
a(S'TGTTTCTCCT'
p9598
I2073
tp9599
a(S'TGTTTCTGGT'
p9600
I3142
tp9601
a(S'TGTTTCTGTT'
p9602
I2609
tp9603
a(S'TGTTTGGAGG'
p9604
I2991
tp9605
a(S'TGTTTGGTGC'
p9606
I2931
tp9607
a(S'TGTTTGGTTC'
p9608
I2661
tp9609
a(S'TGTTTTACAG'
p9610
I2483
tp9611
a(S'TGTTTTCATG'
p9612
I3946
tp9613
a(S'TGTTTTCCGT'
p9614
I1998
tp9615
a(S'TGTTTTGTAT'
p9616
I1953
tp9617
a(S'TTAAAAGAGC'
p9618
I327
tp9619
a(S'TTAAACCTGC'
p9620
I4047
tp9621
a(S'TTAAAGAGAT'
p9622
I2887
tp9623
a(S'TTAAAGCCGC'
p9624
I732
tp9625
a(S'TTAAAGCGCC'
p9626
I1406
tp9627
a(S'TTAAAGCTAC'
p9628
I4974
tp9629
a(S'TTAAATAGCT'
p9630
I4853
tp9631
a(S'TTAAATCGAA'
p9632
I104
tp9633
a(S'TTAAATCTGC'
p9634
I3084
tp9635
a(S'TTAAATTTAA'
p9636
I2219
tp9637
a(S'TTAACAAAAA'
p9638
I5022
tp9639
a(S'TTAACACTAC'
p9640
I1292
tp9641
a(S'TTAACACTTT'
p9642
I28
tp9643
a(S'TTAACCCTGA'
p9644
I1337
tp9645
a(S'TTAACCGAAG'
p9646
I473
tp9647
a(S'TTAACGCTAA'
p9648
I1907
tp9649
a(S'TTAAGATTGC'
p9650
I2030
tp9651
a(S'TTAAGCTCAT'
p9652
I441
tp9653
a(S'TTAAGGATAT'
p9654
I4413
tp9655
a(S'TTAAGGATGA'
p9656
I4458
tp9657
a(S'TTAAGTGAGG'
p9658
I2914
tp9659
a(S'TTAAGTTCAT'
p9660
I1247
tp9661
a(S'TTAATAACAC'
p9662
I4308
tp9663
a(S'TTAATATGCT'
p9664
I244
tp9665
a(S'TTAATCAAGA'
p9666
I1454
tp9667
a(S'TTAATCATGT'
p9668
I2388
tp9669
a(S'TTAATCCAAC'
p9670
I5192
tp9671
a(S'TTAATGCCAC'
p9672
I1268
tp9673
a(S'TTAATGCTGG'
p9674
I2539
tp9675
a(S'TTAATGCTTG'
p9676
I3312
tp9677
a(S'TTAATGGATG'
p9678
I4259
tp9679
a(S'TTAATGGCGT'
p9680
I711
tp9681
a(S'TTAATGTGAC'
p9682
I2225
tp9683
a(S'TTAATTGCAG'
p9684
I960
tp9685
a(S'TTAATTTTTG'
p9686
I2328
tp9687
a(S'TTACAGACAC'
p9688
I2487
tp9689
a(S'TTACAGTATG'
p9690
I4885
tp9691
a(S'TTACCAAGCT'
p9692
I5202
tp9693
a(S'TTACCAATGA'
p9694
I3657
tp9695
a(S'TTACCATGAT'
p9696
I1644
tp9697
a(S'TTACCATTTC'
p9698
I1085
tp9699
a(S'TTACCCCAAA'
p9700
I4438
tp9701
a(S'TTACCCTTCT'
p9702
I3994
tp9703
a(S'TTACCGCTAC'
p9704
I2842
tp9705
a(S'TTACCTTGCG'
p9706
I756
tp9707
a(S'TTACGAATTA'
p9708
I97
tp9709
a(S'TTACGACGCG'
p9710
I5215
tp9711
a(S'TTACGCAGTT'
p9712
I4374
tp9713
a(S'TTACGGAAAA'
p9714
I696
tp9715
a(S'TTACGTGCGG'
p9716
I824
tp9717
a(S'TTACTAAAAT'
p9718
I3390
tp9719
a(S'TTACTACTGC'
p9720
I83
tp9721
a(S'TTACTATCTG'
p9722
I342
tp9723
a(S'TTACTCAAGC'
p9724
I3627
tp9725
a(S'TTACTCCAGC'
p9726
I2461
tp9727
a(S'TTACTCTTGC'
p9728
I1853
tp9729
a(S'TTACTGAACA'
p9730
I399
tp9731
a(S'TTACTGACGC'
p9732
I792
tp9733
a(S'TTACTGAGAA'
p9734
I4248
tp9735
a(S'TTACTGTAGC'
p9736
I5289
tp9737
a(S'TTACTTCATG'
p9738
I1629
tp9739
a(S'TTACTTGAGG'
p9740
I983
tp9741
a(S'TTACTTGTCA'
p9742
I1705
tp9743
a(S'TTACTTTGCG'
p9744
I173
tp9745
a(S'TTACTTTTTA'
p9746
I1202
tp9747
a(S'TTAGAGAACG'
p9748
I4355
tp9749
a(S'TTAGAGGCGT'
p9750
I4607
tp9751
a(S'TTAGATATGA'
p9752
I277
tp9753
a(S'TTAGGAGTTT'
p9754
I2380
tp9755
a(S'TTAGGCCAGT'
p9756
I1771
tp9757
a(S'TTAGTGCTGA'
p9758
I3693
tp9759
a(S'TTAGTTCATC'
p9760
I3710
tp9761
a(S'TTATAACGCC'
p9762
I2303
tp9763
a(S'TTATACCGAT'
p9764
I1929
tp9765
a(S'TTATACCGTC'
p9766
I2753
tp9767
a(S'TTATATGGCT'
p9768
I4987
tp9769
a(S'TTATATTGAC'
p9770
I1305
tp9771
a(S'TTATATTTTG'
p9772
I2517
tp9773
a(S'TTATCAACAG'
p9774
I3529
tp9775
a(S'TTATCACCTT'
p9776
I2085
tp9777
a(S'TTATCCTTTG'
p9778
I2720
tp9779
a(S'TTATCGCAAT'
p9780
I2238
tp9781
a(S'TTATCGCTGG'
p9782
I1106
tp9783
a(S'TTATCGCTTC'
p9784
I5
tp9785
a(S'TTATCGTTTT'
p9786
I4569
tp9787
a(S'TTATCTTGAT'
p9788
I63
tp9789
a(S'TTATCTTGCT'
p9790
I3286
tp9791
a(S'TTATGACCAG'
p9792
I2169
tp9793
a(S'TTATGACGCT'
p9794
I1683
tp9795
a(S'TTATGATAAT'
p9796
I4618
tp9797
a(S'TTATGCGCCA'
p9798
I3612
tp9799
a(S'TTATGCGCCT'
p9800
I2058
tp9801
a(S'TTATGCGCGC'
p9802
I5343
tp9803
a(S'TTATGCGGAC'
p9804
I4785
tp9805
a(S'TTATGCTAAT'
p9806
I1596
tp9807
a(S'TTATGGAAAA'
p9808
I3567
tp9809
a(S'TTATGGGTCT'
p9810
I1577
tp9811
a(S'TTATGGTACG'
p9812
I565
tp9813
a(S'TTATGGTGAA'
p9814
I1230
tp9815
a(S'TTATGGTTAC'
p9816
I4879
tp9817
a(S'TTATGGTTCG'
p9818
I3978
tp9819
a(S'TTATGGTTTC'
p9820
I1473
tp9821
a(S'TTATGTCCCT'
p9822
I1209
tp9823
a(S'TTATGTCTAA'
p9824
I998
tp9825
a(S'TTATGTTCAT'
p9826
I640
tp9827
a(S'TTATGTTGGT'
p9828
I2813
tp9829
a(S'TTATGTTTGG'
p9830
I2928
tp9831
a(S'TTATTAAAGA'
p9832
I2884
tp9833
a(S'TTATTAATGG'
p9834
I708
tp9835
a(S'TTATTACCAT'
p9836
I1082
tp9837
a(S'TTATTACCCT'
p9838
I3991
tp9839
a(S'TTATTATACC'
p9840
I2750
tp9841
a(S'TTATTATGTT'
p9842
I637
tp9843
a(S'TTATTCGCCA'
p9844
I2153
tp9845
a(S'TTATTGCTGC'
p9846
I618
tp9847
a(S'TTATTTCTCG'
p9848
I2407
tp9849
a(S'TTATTTCTTC'
p9850
I1655
tp9851
a(S'TTATTTGAAT'
p9852
I1380
tp9853
a(S'TTATTTGTCT'
p9854
I2896
tp9855
a(S'TTATTTTGAC'
p9856
I4018
tp9857
a(S'TTCAAACGGC'
p9858
I660
tp9859
a(S'TTCAAACTGG'
p9860
I1010
tp9861
a(S'TTCAAACTTT'
p9862
I2423
tp9863
a(S'TTCAACAGAC'
p9864
I1793
tp9865
a(S'TTCAACCACT'
p9866
I364
tp9867
a(S'TTCAACCAGA'
p9868
I5231
tp9869
a(S'TTCAACTACT'
p9870
I1092
tp9871
a(S'TTCAAGATTG'
p9872
I4471
tp9873
a(S'TTCAAGGCTC'
p9874
I3096
tp9875
a(S'TTCAAGGTGA'
p9876
I3027
tp9877
a(S'TTCAATCATG'
p9878
I2265
tp9879
a(S'TTCACACGCC'
p9880
I4702
tp9881
a(S'TTCACGCCAG'
p9882
I3478
tp9883
a(S'TTCACGTTCT'
p9884
I4927
tp9885
a(S'TTCAGAATCA'
p9886
I5123
tp9887
a(S'TTCAGACTTT'
p9888
I2398
tp9889
a(S'TTCAGATGGA'
p9890
I2572
tp9891
a(S'TTCAGCGTTT'
p9892
I4521
tp9893
a(S'TTCAGGAACC'
p9894
I2114
tp9895
a(S'TTCAGGCTTC'
p9896
I450
tp9897
a(S'TTCAGGGTTA'
p9898
I1373
tp9899
a(S'TTCAGTACCT'
p9900
I1898
tp9901
a(S'TTCAGTCGGC'
p9902
I3465
tp9903
a(S'TTCAGTTGTT'
p9904
I2192
tp9905
a(S'TTCATCAGCA'
p9906
I3714
tp9907
a(S'TTCATCCCGT'
p9908
I645
tp9909
a(S'TTCATGAAGG'
p9910
I1252
tp9911
a(S'TTCATGCAGC'
p9912
I1633
tp9913
a(S'TTCATGCCTC'
p9914
I3950
tp9915
a(S'TTCATGGTAG'
p9916
I298
tp9917
a(S'TTCATGGTAT'
p9918
I3822
tp9919
a(S'TTCATGGTTT'
p9920
I2823
tp9921
a(S'TTCATTCAGG'
p9922
I2110
tp9923
a(S'TTCATTGCAT'
p9924
I2563
tp9925
a(S'TTCATTTCCA'
p9926
I4764
tp9927
a(S'TTCATTTGGA'
p9928
I1662
tp9929
a(S'TTCCAAGCAA'
p9930
I3586
tp9931
a(S'TTCCAGACCG'
p9932
I419
tp9933
a(S'TTCCAGTCCG'
p9934
I2182
tp9935
a(S'TTCCATAAGC'
p9936
I4106
tp9937
a(S'TTCCATGACG'
p9938
I12
tp9939
a(S'TTCCATGCGG'
p9940
I4769
tp9941
a(S'TTCCCAAGAA'
p9942
I5109
tp9943
a(S'TTCCCATCTT'
p9944
I1044
tp9945
a(S'TTCCCATTCA'
p9946
I2104
tp9947
a(S'TTCCCCGTAC'
p9948
I2788
tp9949
a(S'TTCCGACTAC'
p9950
I2689
tp9951
a(S'TTCCGAGATT'
p9952
I3604
tp9953
a(S'TTCCGCCTAC'
p9954
I1874
tp9955
a(S'TTCCGTTCTG'
p9956
I2002
tp9957
a(S'TTCCGTTGCT'
p9958
I1480
tp9959
a(S'TTCCTAACCC'
p9960
I3111
tp9961
a(S'TTCCTACAGG'
p9962
I4797
tp9963
a(S'TTCCTCCTGA'
p9964
I1520
tp9965
a(S'TTCCTCTGCT'
p9966
I3343
tp9967
a(S'TTCCTGAGCA'
p9968
I1832
tp9969
a(S'TTCCTGAGCT'
p9970
I3303
tp9971
a(S'TTCCTGCTCC'
p9972
I600
tp9973
a(S'TTCCTTGCTG'
p9974
I1057
tp9975
a(S'TTCGACCTAT'
p9976
I141
tp9977
a(S'TTCGAGATGG'
p9978
I1123
tp9979
a(S'TTCGATAAAA'
p9980
I5353
tp9981
a(S'TTCGATAATG'
p9982
I4178
tp9983
a(S'TTCGATTTTC'
p9984
I488
tp9985
a(S'TTCGCCACCA'
p9986
I2156
tp9987
a(S'TTCGCCATCA'
p9988
I187
tp9989
a(S'TTCGCGATGA'
p9990
I4422
tp9991
a(S'TTCGCGTTTA'
p9992
I749
tp9993
a(S'TTCGCTACAC'
p9994
I4905
tp9995
a(S'TTCGCTGAAT'
p9996
I2870
tp9997
a(S'TTCGCTTTGA'
p9998
I2668
tp9999
a(S'TTCGGATATT'
p10000
I36
tp10001
a(S'TTCGGCACCT'
p10002
I2474
tp10003
a(S'TTCGGCCCCT'
p10004
I974
tp10005
a(S'TTCGGGATGA'
p10006
I5147
tp10007
a(S'TTCGGTTCCG'
p10008
I2684
tp10009
a(S'TTCGTATGCA'
p10010
I4158
tp10011
a(S'TTCGTATGTT'
p10012
I2067
tp10013
a(S'TTCGTCAAGG'
p10014
I261
tp10015
a(S'TTCGTCTAAG'
p10016
I2016
tp10017
a(S'TTCGTGATAA'
p10018
I2277
tp10019
a(S'TTCGTGATAT'
p10020
I4650
tp10021
a(S'TTCGTGATGA'
p10022
I4227
tp10023
a(S'TTCGTTCTTA'
p10024
I3984
tp10025
a(S'TTCGTTTTCC'
p10026
I1868
tp10027
a(S'TTCTAATGTC'
p10028
I3778
tp10029
a(S'TTCTACCACA'
p10030
I1557
tp10031
a(S'TTCTACTCTT'
p10032
I4075
tp10033
a(S'TTCTATGAAG'
p10034
I1986
tp10035
a(S'TTCTATGTGG'
p10036
I5003
tp10037
a(S'TTCTCAATCC'
p10038
I4084
tp10039
a(S'TTCTCACTTC'
p10040
I2449
tp10041
a(S'TTCTCATATT'
p10042
I3748
tp10043
a(S'TTCTCCATTG'
p10044
I1155
tp10045
a(S'TTCTCCTGCT'
p10046
I2076
tp10047
a(S'TTCTCGCCAA'
p10048
I1539
tp10049
a(S'TTCTCGCCAT'
p10050
I2411
tp10051
a(S'TTCTCTTGTT'
p10052
I311
tp10053
a(S'TTCTGAATGT'
p10054
I4000
tp10055
a(S'TTCTGACGAG'
p10056
I495
tp10057
a(S'TTCTGACGTT'
p10058
I4219
tp10059
a(S'TTCTGATAAG'
p10060
I2435
tp10061
a(S'TTCTGATAAG'
p10062
I3214
tp10063
a(S'TTCTGATGAG'
p10064
I45
tp10065
a(S'TTCTGCCGTT'
p10066
I457
tp10067
a(S'TTCTGCCGTT'
p10068
I3205
tp10069
a(S'TTCTGCTCTT'
p10070
I2959
tp10071
a(S'TTCTGCTTAG'
p10072
I2374
tp10073
a(S'TTCTGGAAAG'
p10074
I3863
tp10075
a(S'TTCTGGCGCT'
p10076
I867
tp10077
a(S'TTCTGGTCGT'
p10078
I1782
tp10079
a(S'TTCTGGTGAT'
p10080
I2007
tp10081
a(S'TTCTGGTGAT'
p10082
I2127
tp10083
a(S'TTCTGGTGCT'
p10084
I3145
tp10085
a(S'TTCTGGTGTG'
p10086
I3802
tp10087
a(S'TTCTGGTTGG'
p10088
I4933
tp10089
a(S'TTCTGTCAAA'
p10090
I205
tp10091
a(S'TTCTGTCTTT'
p10092
I4149
tp10093
a(S'TTCTGTGCCG'
p10094
I1812
tp10095
a(S'TTCTGTTACT'
p10096
I2456
tp10097
a(S'TTCTGTTGGT'
p10098
I2612
tp10099
a(S'TTCTTACTGA'
p10100
I789
tp10101
a(S'TTCTTATTAC'
p10102
I3988
tp10103
a(S'TTCTTCATTG'
p10104
I2560
tp10105
a(S'TTCTTCATTT'
p10106
I1659
tp10107
a(S'TTCTTCGGCA'
p10108
I2471
tp10109
a(S'TTCTTCGGTT'
p10110
I2681
tp10111
a(S'TTCTTGAAGG'
p10112
I2093
tp10113
a(S'TTCTTGAAGG'
p10114
I3177
tp10115
a(S'TTCTTGCTGC'
p10116
I4671
tp10117
a(S'TTCTTGGCAC'
p10118
I1325
tp10119
a(S'TTCTTTGTTC'
p10120
I1825
tp10121
a(S'TTGAAGCAGA'
p10122
I5243
tp10123
a(S'TTGAAGGCTT'
p10124
I2096
tp10125
a(S'TTGAAGGTAC'
p10126
I3180
tp10127
a(S'TTGAATATCT'
p10128
I1384
tp10129
a(S'TTGAATGGTC'
p10130
I2727
tp10131
a(S'TTGACACCCT'
p10132
I3926
tp10133
a(S'TTGACACTCT'
p10134
I4578
tp10135
a(S'TTGACATTAT'
p10136
I1571
tp10137
a(S'TTGACATTTT'
p10138
I319
tp10139
a(S'TTGACCAAGC'
p10140
I2349
tp10141
a(S'TTGACCATGC'
p10142
I1310
tp10143
a(S'TTGACCCTAA'
p10144
I4812
tp10145
a(S'TTGACGCCGG'
p10146
I3360
tp10147
a(S'TTGACGGCCA'
p10148
I4200
tp10149
a(S'TTGACGGTTA'
p10150
I2532
tp10151
a(S'TTGACGTCCT'
p10152
I2779
tp10153
a(S'TTGACTCTAC'
p10154
I1181
tp10155
a(S'TTGACTTAGT'
p10156
I3705
tp10157
a(S'TTGACTTATA'
p10158
I1924
tp10159
a(S'TTGACTTTGA'
p10160
I4023
tp10161
a(S'TTGAGAATCA'
p10162
I3372
tp10163
a(S'TTGAGCGTAT'
p10164
I4029
tp10165
a(S'TTGAGGATAA'
p10166
I987
tp10167
a(S'TTGAGGCTGG'
p10168
I5273
tp10169
a(S'TTGAGGCTTG'
p10170
I552
tp10171
a(S'TTGAGGCTTG'
p10172
I4059
tp10173
a(S'TTGAGTCTTC'
p10174
I2674
tp10175
a(S'TTGAGTGTGA'
p10176
I2291
tp10177
a(S'TTGAGTTCGA'
p10178
I4173
tp10179
a(S'TTGAGTTTAT'
p10180
I612
tp10181
a(S'TTGATAAAGC'
p10182
I68
tp10183
a(S'TTGATAAAGC'
p10184
I3831
tp10185
a(S'TTGATAGTTT'
p10186
I2524
tp10187
a(S'TTGATATTAA'
p10188
I4302
tp10189
a(S'TTGATATTTT'
p10190
I3813
tp10191
a(S'TTGATGAATG'
p10192
I4529
tp10193
a(S'TTGATGCCGA'
p10194
I2635
tp10195
a(S'TTGATGCTAA'
p10196
I4953
tp10197
a(S'TTGATGGAAC'
p10198
I1748
tp10199
a(S'TTGATTTGGT'
p10200
I3228
tp10201
a(S'TTGCAAAATA'
p10202
I4862
tp10203
a(S'TTGCAAGAAC'
p10204
I2137
tp10205
a(S'TTGCAGGCTG'
p10206
I3191
tp10207
a(S'TTGCAGGGGC'
p10208
I964
tp10209
a(S'TTGCAGTGGA'
p10210
I2200
tp10211
a(S'TTGCATACTG'
p10212
I1606
tp10213
a(S'TTGCATTCAG'
p10214
I2567
tp10215
a(S'TTGCCGAGAT'
p10216
I3423
tp10217
a(S'TTGCCGATAC'
p10218
I3843
tp10219
a(S'TTGCCGCAAG'
p10220
I4384
tp10221
a(S'TTGCCGCCGC'
p10222
I1969
tp10223
a(S'TTGCCGCTGA'
p10224
I2335
tp10225
a(S'TTGCCTGTTT'
p10226
I2656
tp10227
a(S'TTGCGACCTT'
p10228
I178
tp10229
a(S'TTGCGAGGTA'
p10230
I898
tp10231
a(S'TTGCGCAGCT'
p10232
I153
tp10233
a(S'TTGCGCTTGT'
p10234
I1859
tp10235
a(S'TTGCGTCGTG'
p10236
I1162
tp10237
a(S'TTGCGTCTAT'
p10238
I3558
tp10239
a(S'TTGCGTGACT'
p10240
I4637
tp10241
a(S'TTGCGTGTAC'
p10242
I761
tp10243
a(S'TTGCGTTTAT'
p10244
I559
tp10245
a(S'TTGCTACCGA'
p10246
I3042
tp10247
a(S'TTGCTACTGA'
p10248
I519
tp10249
a(S'TTGCTATTCA'
p10250
I4515
tp10251
a(S'TTGCTATTGA'
p10252
I1175
tp10253
a(S'TTGCTGAGGG'
p10254
I2036
tp10255
a(S'TTGCTGCCAT'
p10256
I1485
tp10257
a(S'TTGCTGCCGA'
p10258
I4674
tp10259
a(S'TTGCTGCCGT'
p10260
I621
tp10261
a(S'TTGCTGCTAA'
p10262
I5046
tp10263
a(S'TTGCTGCTGC'
p10264
I3291
tp10265
a(S'TTGCTGGAGG'
p10266
I4478
tp10267
a(S'TTGCTGGCAT'
p10268
I3456
tp10269
a(S'TTGCTGGCGA'
p10270
I1940
tp10271
a(S'TTGCTGGCGG'
p10272
I2943
tp10273
a(S'TTGCTGGTCA'
p10274
I1061
tp10275
a(S'TTGCTGGTGG'
p10276
I2967
tp10277
a(S'TTGCTTATCA'
p10278
I3525
tp10279
a(S'TTGCTTATTA'
p10280
I633
tp10281
a(S'TTGCTTCTGC'
p10282
I2955
tp10283
a(S'TTGCTTGATT'
p10284
I3224
tp10285
a(S'TTGCTTTTGA'
p10286
I2629
tp10287
a(S'TTGGAACAAT'
p10288
I3853
tp10289
a(S'TTGGAAGAGA'
p10290
I4139
tp10291
a(S'TTGGACTGCT'
p10292
I1506
tp10293
a(S'TTGGACTTGG'
p10294
I3237
tp10295
a(S'TTGGAGGCGG'
p10296
I2994
tp10297
a(S'TTGGAGGCTT'
p10298
I3966
tp10299
a(S'TTGGAGGTAA'
p10300
I1667
tp10301
a(S'TTGGATGAGG'
p10302
I225
tp10303
a(S'TTGGATTGCT'
p10304
I514
tp10305
a(S'TTGGATTTAA'
p10306
I467
tp10307
a(S'TTGGCACAAT'
p10308
I4271
tp10309
a(S'TTGGCACGAT'
p10310
I1328
tp10311
a(S'TTGGCACGTT'
p10312
I253
tp10313
a(S'TTGGCCTCTA'
p10314
I431
tp10315
a(S'TTGGCGCTAC'
p10316
I3756
tp10317
a(S'TTGGCGCTCT'
p10318
I1139
tp10319
a(S'TTGGCGGCGC'
p10320
I5306
tp10321
a(S'TTGGCGTATC'
p10322
I5367
tp10323
a(S'TTGGCTCTAA'
p10324
I3891
tp10325
a(S'TTGGCTGACG'
p10326
I4592
tp10327
a(S'TTGGCTTCCA'
p10328
I4101
tp10329
a(S'TTGGCTTCCT'
p10330
I1052
tp10331
a(S'TTGGGAGCGT'
p10332
I3319
tp10333
a(S'TTGGTATGTA'
p10334
I936
tp10335
a(S'TTGGTCGTAT'
p10336
I4659
tp10337
a(S'TTGGTCGTCG'
p10338
I4824
tp10339
a(S'TTGGTCGTCT'
p10340
I1073
tp10341
a(S'TTGGTCTAAC'
p10342
I2831
tp10343
a(S'TTGGTGCTAT'
p10344
I2934
tp10345
a(S'TTGGTGCTGA'
p10346
I2617
tp10347
a(S'TTGGTGGCAA'
p10348
I3243
tp10349
a(S'TTGGTTCGCT'
p10350
I2664
tp10351
a(S'TTGGTTGGAC'
p10352
I3233
tp10353
a(S'TTGGTTGTGG'
p10354
I4939
tp10355
a(S'TTGGTTTATC'
p10356
I4564
tp10357
a(S'TTGGTTTCAT'
p10358
I2818
tp10359
a(S'TTGGTTTCGC'
p10360
I2865
tp10361
a(S'TTGGTTTCTA'
p10362
I4998
tp10363
a(S'TTGTATCTGT'
p10364
I4239
tp10365
a(S'TTGTATGGCA'
p10366
I1957
tp10367
a(S'TTGTATGTTT'
p10368
I3941
tp10369
a(S'TTGTCATGCG'
p10370
I1709
tp10371
a(S'TTGTCTAGGA'
p10372
I3902
tp10373
a(S'TTGTCTCCAG'
p10374
I2900
tp10375
a(S'TTGTGGCATT'
p10376
I4066
tp10377
a(S'TTGTGGCCTG'
p10378
I4943
tp10379
a(S'TTGTGGGATA'
p10380
I582
tp10381
a(S'TTGTGTGCCT'
p10382
I4729
tp10383
a(S'TTGTTCATGG'
p10384
I295
tp10385
a(S'TTGTTCCTGA'
p10386
I1829
tp10387
a(S'TTGTTCGCGT'
p10388
I746
tp10389
a(S'TTGTTCGTTT'
p10390
I1865
tp10391
a(S'TTGTTGACAT'
p10392
I316
tp10393
a(S'TTGTTGCAGT'
p10394
I2197
tp10395
a(S'TTGTTTACGA'
p10396
I93
tp10397
a(S'TTGTTTCAGG'
p10398
I1369
tp10399
a(S'TTGTTTCTGG'
p10400
I3141
tp10401
a(S'TTGTTTCTGT'
p10402
I2608
tp10403
a(S'TTGTTTGGAG'
p10404
I2990
tp10405
a(S'TTTAAAAGAG'
p10406
I326
tp10407
a(S'TTTAAAGCGC'
p10408
I1405
tp10409
a(S'TTTAACCGAA'
p10410
I472
tp10411
a(S'TTTAAGATTG'
p10412
I2029
tp10413
a(S'TTTAATCATG'
p10414
I2387
tp10415
a(S'TTTAATGTGA'
p10416
I2224
tp10417
a(S'TTTAATTGCA'
p10418
I959
tp10419
a(S'TTTAATTTTT'
p10420
I2327
tp10421
a(S'TTTACAGACA'
p10422
I2486
tp10423
a(S'TTTACCAATG'
p10424
I3656
tp10425
a(S'TTTACCGCTA'
p10426
I2841
tp10427
a(S'TTTACCTTGC'
p10428
I755
tp10429
a(S'TTTACGAATT'
p10430
I96
tp10431
a(S'TTTACGGAAA'
p10432
I695
tp10433
a(S'TTTACTCTTG'
p10434
I1852
tp10435
a(S'TTTACTTGTC'
p10436
I1704
tp10437
a(S'TTTACTTTTT'
p10438
I1201
tp10439
a(S'TTTAGAGAAC'
p10440
I4354
tp10441
a(S'TTTAGATATG'
p10442
I276
tp10443
a(S'TTTATCCTTT'
p10444
I2719
tp10445
a(S'TTTATCGCAA'
p10446
I2237
tp10447
a(S'TTTATCGCTT'
p10448
I4
tp10449
a(S'TTTATCGTTT'
p10450
I4568
tp10451
a(S'TTTATGATAA'
p10452
I4617
tp10453
a(S'TTTATGCGCG'
p10454
I5342
tp10455
a(S'TTTATGCGGA'
p10456
I4784
tp10457
a(S'TTTATGGTAC'
p10458
I564
tp10459
a(S'TTTATGGTGA'
p10460
I1229
tp10461
a(S'TTTATGGTTC'
p10462
I3977
tp10463
a(S'TTTATGTCCC'
p10464
I1208
tp10465
a(S'TTTATGTTGG'
p10466
I2812
tp10467
a(S'TTTATGTTTG'
p10468
I2927
tp10469
a(S'TTTATTGCTG'
p10470
I617
tp10471
a(S'TTTATTTCTC'
p10472
I2406
tp10473
a(S'TTTCAACTAC'
p10474
I1091
tp10475
a(S'TTTCACGTTC'
p10476
I4926
tp10477
a(S'TTTCAGACTT'
p10478
I2397
tp10479
a(S'TTTCAGGGTT'
p10480
I1372
tp10481
a(S'TTTCATGCCT'
p10482
I3949
tp10483
a(S'TTTCATGGTA'
p10484
I3821
tp10485
a(S'TTTCATGGTT'
p10486
I2822
tp10487
a(S'TTTCCAAGCA'
p10488
I3585
tp10489
a(S'TTTCCAGACC'
p10490
I418
tp10491
a(S'TTTCCAGTCC'
p10492
I2181
tp10493
a(S'TTTCCATGCG'
p10494
I4768
tp10495
a(S'TTTCCCATCT'
p10496
I1043
tp10497
a(S'TTTCCGAGAT'
p10498
I3603
tp10499
a(S'TTTCCGCCTA'
p10500
I1873
tp10501
a(S'TTTCCGTTCT'
p10502
I2001
tp10503
a(S'TTTCCGTTGC'
p10504
I1479
tp10505
a(S'TTTCCTGAGC'
p10506
I3302
tp10507
a(S'TTTCCTGCTC'
p10508
I599
tp10509
a(S'TTTCGATTTT'
p10510
I487
tp10511
a(S'TTTCGCCATC'
p10512
I186
tp10513
a(S'TTTCGCTGAA'
p10514
I2869
tp10515
a(S'TTTCGGATAT'
p10516
I35
tp10517
a(S'TTTCGTATGC'
p10518
I4157
tp10519
a(S'TTTCGTGATA'
p10520
I4649
tp10521
a(S'TTTCTAATGT'
p10522
I3777
tp10523
a(S'TTTCTACTCT'
p10524
I4074
tp10525
a(S'TTTCTATGAA'
p10526
I1985
tp10527
a(S'TTTCTATGTG'
p10528
I5002
tp10529
a(S'TTTCTCAATC'
p10530
I4083
tp10531
a(S'TTTCTCCATT'
p10532
I1154
tp10533
a(S'TTTCTCCTGC'
p10534
I2075
tp10535
a(S'TTTCTCGCCA'
p10536
I1538
tp10537
a(S'TTTCTCGCCA'
p10538
I2410
tp10539
a(S'TTTCTGACGA'
p10540
I494
tp10541
a(S'TTTCTGATAA'
p10542
I2434
tp10543
a(S'TTTCTGATAA'
p10544
I3213
tp10545
a(S'TTTCTGATGA'
p10546
I44
tp10547
a(S'TTTCTGCTTA'
p10548
I2373
tp10549
a(S'TTTCTGGAAA'
p10550
I3862
tp10551
a(S'TTTCTGGTCG'
p10552
I1781
tp10553
a(S'TTTCTGGTGC'
p10554
I3144
tp10555
a(S'TTTCTGTTGG'
p10556
I2611
tp10557
a(S'TTTCTTCATT'
p10558
I1658
tp10559
a(S'TTTCTTCATT'
p10560
I2559
tp10561
a(S'TTTCTTGGCA'
p10562
I1324
tp10563
a(S'TTTCTTTGTT'
p10564
I1824
tp10565
a(S'TTTGAATATC'
p10566
I1383
tp10567
a(S'TTTGAATGGT'
p10568
I2726
tp10569
a(S'TTTGACACTC'
p10570
I4577
tp10571
a(S'TTTGACGGTT'
p10572
I2531
tp10573
a(S'TTTGACTTAT'
p10574
I1923
tp10575
a(S'TTTGACTTTG'
p10576
I4022
tp10577
a(S'TTTGAGAATC'
p10578
I3371
tp10579
a(S'TTTGAGCGTA'
p10580
I4028
tp10581
a(S'TTTGAGTCTT'
p10582
I2673
tp10583
a(S'TTTGATAGTT'
p10584
I2523
tp10585
a(S'TTTGATGAAT'
p10586
I4528
tp10587
a(S'TTTGATGCCG'
p10588
I2634
tp10589
a(S'TTTGCAAGAA'
p10590
I2136
tp10591
a(S'TTTGCATACT'
p10592
I1605
tp10593
a(S'TTTGCCGCAA'
p10594
I4383
tp10595
a(S'TTTGCCGCTG'
p10596
I2334
tp10597
a(S'TTTGCCTGTT'
p10598
I2655
tp10599
a(S'TTTGCGACCT'
p10600
I177
tp10601
a(S'TTTGCGTGAC'
p10602
I4636
tp10603
a(S'TTTGCTATTC'
p10604
I4514
tp10605
a(S'TTTGGACTGC'
p10606
I1505
tp10607
a(S'TTTGGAGGCG'
p10608
I2993
tp10609
a(S'TTTGGAGGTA'
p10610
I1666
tp10611
a(S'TTTGGATTGC'
p10612
I513
tp10613
a(S'TTTGGATTTA'
p10614
I466
tp10615
a(S'TTTGGCCTCT'
p10616
I430
tp10617
a(S'TTTGGCGGCG'
p10618
I5305
tp10619
a(S'TTTGGTATGT'
p10620
I935
tp10621
a(S'TTTGGTCGTC'
p10622
I4823
tp10623
a(S'TTTGGTCTAA'
p10624
I2830
tp10625
a(S'TTTGGTGCTA'
p10626
I2933
tp10627
a(S'TTTGGTTCGC'
p10628
I2663
tp10629
a(S'TTTGGTTGGA'
p10630
I3232
tp10631
a(S'TTTGTATCTG'
p10632
I4238
tp10633
a(S'TTTGTATGGC'
p10634
I1956
tp10635
a(S'TTTGTCTAGG'
p10636
I3901
tp10637
a(S'TTTGTCTCCA'
p10638
I2899
tp10639
a(S'TTTGTGGGAT'
p10640
I581
tp10641
a(S'TTTGTGTGCC'
p10642
I4728
tp10643
a(S'TTTGTTCATG'
p10644
I294
tp10645
a(S'TTTGTTCCTG'
p10646
I1828
tp10647
a(S'TTTGTTTCAG'
p10648
I1368
tp10649
a(S'TTTGTTTCTG'
p10650
I3140
tp10651
a(S'TTTTAAAAGA'
p10652
I325
tp10653
a(S'TTTTAAAGCG'
p10654
I1404
tp10655
a(S'TTTTAATTGC'
p10656
I958
tp10657
a(S'TTTTAATTTT'
p10658
I2326
tp10659
a(S'TTTTACAGAC'
p10660
I2485
tp10661
a(S'TTTTACCAAT'
p10662
I3655
tp10663
a(S'TTTTACTTTT'
p10664
I1200
tp10665
a(S'TTTTAGAGAA'
p10666
I4353
tp10667
a(S'TTTTATCGCT'
p10668
I3
tp10669
a(S'TTTTATGATA'
p10670
I4616
tp10671
a(S'TTTTATGGTT'
p10672
I3976
tp10673
a(S'TTTTATGTCC'
p10674
I1207
tp10675
a(S'TTTTATTTCT'
p10676
I2405
tp10677
a(S'TTTTCACGTT'
p10678
I4925
tp10679
a(S'TTTTCATGCC'
p10680
I3948
tp10681
a(S'TTTTCATGGT'
p10682
I3820
tp10683
a(S'TTTTCCGCCT'
p10684
I1872
tp10685
a(S'TTTTCCGTTC'
p10686
I2000
tp10687
a(S'TTTTCGTATG'
p10688
I4156
tp10689
a(S'TTTTCGTGAT'
p10690
I4648
tp10691
a(S'TTTTCTGACG'
p10692
I493
tp10693
a(S'TTTTCTGATA'
p10694
I2433
tp10695
a(S'TTTTCTGCTT'
p10696
I2372
tp10697
a(S'TTTTCTGGTC'
p10698
I1780
tp10699
a(S'TTTTCTTCAT'
p10700
I2558
tp10701
a(S'TTTTCTTGGC'
p10702
I1323
tp10703
a(S'TTTTGACACT'
p10704
I4576
tp10705
a(S'TTTTGACTTT'
p10706
I4021
tp10707
a(S'TTTTGATAGT'
p10708
I2522
tp10709
a(S'TTTTGATGCC'
p10710
I2633
tp10711
a(S'TTTTGCCGCA'
p10712
I4382
tp10713
a(S'TTTTGCCGCT'
p10714
I2333
tp10715
a(S'TTTTGCCTGT'
p10716
I2654
tp10717
a(S'TTTTGGATTT'
p10718
I465
tp10719
a(S'TTTTGGCGGC'
p10720
I5304
tp10721
a(S'TTTTGGTCGT'
p10722
I4822
tp10723
a(S'TTTTGTATGG'
p10724
I1955
tp10725
a(S'TTTTGTGTGC'
p10726
I4727
tp10727
a(S'TTTTGTTCAT'
p10728
I293
tp10729
a(S'TTTTGTTTCT'
p10730
I3139
tp10731
a(S'TTTTTACTTT'
p10732
I1199
tp10733
a(S'TTTTTAGAGA'
p10734
I4352
tp10735
a(S'TTTTTATGGT'
p10736
I3975
tp10737
a(S'TTTTTATGTC'
p10738
I1206
tp10739
a(S'TTTTTCACGT'
p10740
I4924
tp10741
a(S'TTTTTCATGG'
p10742
I3819
tp10743
a(S'TTTTTCTGAT'
p10744
I2432
tp10745
a(S'TTTTTGACAC'
p10746
I4575
tp10747
a(S'TTTTTGCCGC'
p10748
I2332
tp10749
a(S'TTTTTGCCTG'
p10750
I2653
tp10751
a(S'TTTTTGTGTG'
p10752
I4726
tp10753
a(S'TTTTTTATGG'
p10754
I3974
tp10755
a(S'TTTTTTCTGA'
p10756
I2431
tp10757
a(S'TTTTTTGCCT'
p10758
I2652
tp10759
a(S'TTTTTTTCTG'
p10760
I2430
tp10761
asS'k'
p10762
I10
sb.